---
triple:          'arm64-apple-darwin'
binary-path:     '/Users/sohamghosh/Documents/CodeAssignments/wordscramble'
relocations:
  - { offsetInCU: 0x8136, offset: 0x8136, size: 0x8, addend: 0x0, symName: __ZNSt3__124__put_character_sequenceB8ue170006IcNS_11char_traitsIcEEEERNS_13basic_ostreamIT_T0_EES7_PKS4_m, symObjAddr: 0x67D8, symBinAddr: 0x10000AAEC, symSize: 0x1F4 }
  - { offsetInCU: 0x9CB2, offset: 0x9CB2, size: 0x8, addend: 0x0, symName: __ZNSt3__1neB8ue170006IPNS_12basic_stringIcNS_11char_traitsIcEENS_9allocatorIcEEEEEEbRKNS_11__wrap_iterIT_EESC_, symObjAddr: 0x688, symBinAddr: 0x10000499C, symSize: 0x34 }
  - { offsetInCU: 0x9CF5, offset: 0x9CF5, size: 0x8, addend: 0x0, symName: __ZNSt3__1neB8ue170006IPcEEbRKNS_11__wrap_iterIT_EES6_, symObjAddr: 0x788, symBinAddr: 0x100004A9C, symSize: 0x34 }
  - { offsetInCU: 0x9D38, offset: 0x9D38, size: 0x8, addend: 0x0, symName: __ZNSt3__1neB8ue170006ERKNS_19__hash_map_iteratorINS_15__hash_iteratorIPNS_11__hash_nodeINS_17__hash_value_typeIciEEPvEEEEEESB_, symObjAddr: 0x82C, symBinAddr: 0x100004B40, symSize: 0x30 }
  - { offsetInCU: 0x9D75, offset: 0x9D75, size: 0x8, addend: 0x0, symName: __ZNSt3__1lsB8ue170006IcNS_11char_traitsIcEENS_9allocatorIcEEEERNS_13basic_ostreamIT_T0_EES9_RKNS_12basic_stringIS6_S7_T1_EE, symObjAddr: 0x1174, symBinAddr: 0x100005488, symSize: 0x4C }
  - { offsetInCU: 0x9DCD, offset: 0x9DCD, size: 0x8, addend: 0x0, symName: __ZNSt3__14endlB8ue170006IcNS_11char_traitsIcEEEERNS_13basic_ostreamIT_T0_EES7_, symObjAddr: 0x11EC, symBinAddr: 0x100005500, symSize: 0x58 }
  - { offsetInCU: 0x9E0D, offset: 0x9E0D, size: 0x8, addend: 0x0, symName: __ZNSt3__130__libcpp_is_constant_evaluatedB8ue170006Ev, symObjAddr: 0x1B9C, symBinAddr: 0x100005EB0, symSize: 0xC }
  - { offsetInCU: 0x9E2A, offset: 0x9E2A, size: 0x8, addend: 0x0, symName: __ZNSt3__119__libcpp_deallocateB8ue170006EPvmm, symObjAddr: 0x1BA8, symBinAddr: 0x100005EBC, symSize: 0x30 }
  - { offsetInCU: 0x9E72, offset: 0x9E72, size: 0x8, addend: 0x0, symName: __ZNSt3__127__do_deallocate_handle_sizeB8ue170006IJEEEvPvmDpT_, symObjAddr: 0x1BD8, symBinAddr: 0x100005EEC, symSize: 0x28 }
  - { offsetInCU: 0x9EB0, offset: 0x9EB0, size: 0x8, addend: 0x0, symName: __ZNSt3__124__libcpp_operator_deleteB8ue170006IJPvEEEvDpT_, symObjAddr: 0x1C00, symBinAddr: 0x100005F14, symSize: 0x24 }
  - { offsetInCU: 0x9F4B, offset: 0x9F4B, size: 0x8, addend: 0x0, symName: __ZNSt3__116__constrain_hashB8ue170006Emm, symObjAddr: 0x2724, symBinAddr: 0x100006A38, symSize: 0x98 }
  - { offsetInCU: 0x9FA3, offset: 0x9FA3, size: 0x8, addend: 0x0, symName: __ZNSt3__117__libcpp_allocateB8ue170006Emm, symObjAddr: 0x2D0C, symBinAddr: 0x100007020, symSize: 0x28 }
  - { offsetInCU: 0x9FE0, offset: 0x9FE0, size: 0x8, addend: 0x0, symName: __ZNSt3__121__libcpp_operator_newB8ue170006IJmEEEPvDpT_, symObjAddr: 0x2D4C, symBinAddr: 0x100007060, symSize: 0x24 }
  - { offsetInCU: 0xA019, offset: 0xA019, size: 0x8, addend: 0x0, symName: __ZNSt3__13maxB8ue170006ImEERKT_S3_S3_, symObjAddr: 0x34CC, symBinAddr: 0x1000077E0, symSize: 0x2C }
  - { offsetInCU: 0xA05C, offset: 0xA05C, size: 0x8, addend: 0x0, symName: __ZNSt3__116__is_hash_power2B8ue170006Em, symObjAddr: 0x34F8, symBinAddr: 0x10000780C, symSize: 0x50 }
  - { offsetInCU: 0xA088, offset: 0xA088, size: 0x8, addend: 0x0, symName: __ZNSt3__116__next_hash_pow2B8ue170006Em, symObjAddr: 0x39EC, symBinAddr: 0x100007D00, symSize: 0x6C }
  - { offsetInCU: 0xA0D0, offset: 0xA0D0, size: 0x8, addend: 0x0, symName: __ZNSt3__112__libcpp_clzB8ue170006Em, symObjAddr: 0x3BDC, symBinAddr: 0x100007EF0, symSize: 0x1C }
  - { offsetInCU: 0xA0FC, offset: 0xA0FC, size: 0x8, addend: 0x0, symName: __ZNSt3__13maxB8ue170006ImNS_6__lessIvvEEEERKT_S5_S5_T0_, symObjAddr: 0x3BF8, symBinAddr: 0x100007F0C, symSize: 0x54 }
  - { offsetInCU: 0xA19B, offset: 0xA19B, size: 0x8, addend: 0x0, symName: __ZNSt3__1eqB8ue170006IPNS_12basic_stringIcNS_11char_traitsIcEENS_9allocatorIcEEEEEEbRKNS_11__wrap_iterIT_EESC_, symObjAddr: 0x444C, symBinAddr: 0x100008760, symSize: 0x48 }
  - { offsetInCU: 0xA1DE, offset: 0xA1DE, size: 0x8, addend: 0x0, symName: __ZNSt3__1eqB8ue170006IPcEEbRKNS_11__wrap_iterIT_EES6_, symObjAddr: 0x4530, symBinAddr: 0x100008844, symSize: 0x48 }
  - { offsetInCU: 0xA221, offset: 0xA221, size: 0x8, addend: 0x0, symName: __ZNSt3__1neB8ue170006ERKNS_15__hash_iteratorIPNS_11__hash_nodeINS_17__hash_value_typeIciEEPvEEEES9_, symObjAddr: 0x45C8, symBinAddr: 0x1000088DC, symSize: 0x34 }
  - { offsetInCU: 0xA25E, offset: 0xA25E, size: 0x8, addend: 0x0, symName: __ZNSt3__1eqB8ue170006ERKNS_15__hash_iteratorIPNS_11__hash_nodeINS_17__hash_value_typeIciEEPvEEEES9_, symObjAddr: 0x45FC, symBinAddr: 0x100008910, symSize: 0x30 }
  - { offsetInCU: 0xA301, offset: 0xA301, size: 0x8, addend: 0x0, symName: __ZNSt3__1neB8ue170006ERKNS_21__hash_const_iteratorIPNS_11__hash_nodeINS_17__hash_value_typeIciEEPvEEEES9_, symObjAddr: 0x4734, symBinAddr: 0x100008A48, symSize: 0x34 }
  - { offsetInCU: 0xA33E, offset: 0xA33E, size: 0x8, addend: 0x0, symName: __ZNSt3__1eqB8ue170006ERKNS_21__hash_const_iteratorIPNS_11__hash_nodeINS_17__hash_value_typeIciEEPvEEEES9_, symObjAddr: 0x494C, symBinAddr: 0x100008C60, symSize: 0x30 }
  - { offsetInCU: 0xA37B, offset: 0xA37B, size: 0x8, addend: 0x0, symName: __ZNSt3__118__constexpr_strlenB8ue170006EPKc, symObjAddr: 0x4B30, symBinAddr: 0x100008E44, symSize: 0x24 }
  - { offsetInCU: 0xA3A7, offset: 0xA3A7, size: 0x8, addend: 0x0, symName: __ZNSt3__112__to_addressB8ue170006INS_12basic_stringIcNS_11char_traitsIcEENS_9allocatorIcEEEEEEPT_S8_, symObjAddr: 0x5020, symBinAddr: 0x100009334, symSize: 0x14 }
  - { offsetInCU: 0xA3DC, offset: 0xA3DC, size: 0x8, addend: 0x0, symName: __ZNSt3__13minB8ue170006ImEERKT_S3_S3_, symObjAddr: 0x57AC, symBinAddr: 0x100009AC0, symSize: 0x2C }
  - { offsetInCU: 0xA620, offset: 0xA620, size: 0x8, addend: 0x0, symName: __ZNSt3__13minB8ue170006ImNS_6__lessIvvEEEERKT_S5_S5_T0_, symObjAddr: 0x5838, symBinAddr: 0x100009B4C, symSize: 0x54 }
  - { offsetInCU: 0xA67A, offset: 0xA67A, size: 0x8, addend: 0x0, symName: __ZNSt3__120__throw_length_errorB8ue170006EPKc, symObjAddr: 0x58E4, symBinAddr: 0x100009BF8, symSize: 0x64 }
  - { offsetInCU: 0xA6A4, offset: 0xA6A4, size: 0x8, addend: 0x0, symName: __ZNSt3__119__allocate_at_leastB8ue170006INS_9allocatorINS_12basic_stringIcNS_11char_traitsIcEENS1_IcEEEEEEEENS_19__allocation_resultINS_16allocator_traitsIT_E7pointerEEERSA_m, symObjAddr: 0x5AE4, symBinAddr: 0x100009DF8, symSize: 0x40 }
  - { offsetInCU: 0xA6E7, offset: 0xA6E7, size: 0x8, addend: 0x0, symName: __ZNSt3__142__uninitialized_allocator_move_if_noexceptB8ue170006INS_9allocatorINS_12basic_stringIcNS_11char_traitsIcEENS1_IcEEEEEENS_16reverse_iteratorIPS6_EESA_SA_EET2_RT_T0_T1_SB_, symObjAddr: 0x5CCC, symBinAddr: 0x100009FE0, symSize: 0x134 }
  - { offsetInCU: 0xA787, offset: 0xA787, size: 0x8, addend: 0x0, symName: __ZNSt3__14swapB8ue170006IPNS_12basic_stringIcNS_11char_traitsIcEENS_9allocatorIcEEEEEEvRT_S9_, symObjAddr: 0x5E4C, symBinAddr: 0x10000A160, symSize: 0x3C }
  - { offsetInCU: 0xA7D8, offset: 0xA7D8, size: 0x8, addend: 0x0, symName: __ZNSt3__122__make_exception_guardB8ue170006INS_29_AllocatorDestroyRangeReverseINS_9allocatorINS_12basic_stringIcNS_11char_traitsIcEENS2_IcEEEEEENS_16reverse_iteratorIPS7_EEEEEENS_28__exception_guard_exceptionsIT_EESE_, symObjAddr: 0x5F50, symBinAddr: 0x10000A264, symSize: 0x4C }
  - { offsetInCU: 0xA80E, offset: 0xA80E, size: 0x8, addend: 0x0, symName: __ZNSt3__1neB8ue170006IPNS_12basic_stringIcNS_11char_traitsIcEENS_9allocatorIcEEEES7_EEbRKNS_16reverse_iteratorIT_EERKNS8_IT0_EE, symObjAddr: 0x5FE0, symBinAddr: 0x10000A2F4, symSize: 0x48 }
  - { offsetInCU: 0xA85A, offset: 0xA85A, size: 0x8, addend: 0x0, symName: __ZNSt3__112__to_addressB8ue170006INS_16reverse_iteratorIPNS_12basic_stringIcNS_11char_traitsIcEENS_9allocatorIcEEEEEEvEEu7__decayIDTclsr19__to_address_helperIT_EE6__callclsr3stdE7declvalIRKSA_EEEEESC_, symObjAddr: 0x605C, symBinAddr: 0x10000A370, symSize: 0x24 }
  - { offsetInCU: 0xA8B9, offset: 0xA8B9, size: 0x8, addend: 0x0, symName: __ZNSt3__119__allocator_destroyB8ue170006INS_9allocatorINS_12basic_stringIcNS_11char_traitsIcEENS1_IcEEEEEENS_16reverse_iteratorINS8_IPS6_EEEESB_EEvRT_T0_T1_, symObjAddr: 0x6348, symBinAddr: 0x10000A65C, symSize: 0x70 }
  - { offsetInCU: 0xA91E, offset: 0xA91E, size: 0x8, addend: 0x0, symName: __ZNSt3__1neB8ue170006INS_16reverse_iteratorIPNS_12basic_stringIcNS_11char_traitsIcEENS_9allocatorIcEEEEEES9_EEbRKNS1_IT_EERKNS1_IT0_EE, symObjAddr: 0x63F4, symBinAddr: 0x10000A708, symSize: 0x60 }
  - { offsetInCU: 0xA96A, offset: 0xA96A, size: 0x8, addend: 0x0, symName: __ZNSt3__112__to_addressB8ue170006INS_16reverse_iteratorINS1_IPNS_12basic_stringIcNS_11char_traitsIcEENS_9allocatorIcEEEEEEEEvEEu7__decayIDTclsr19__to_address_helperIT_EE6__callclsr3stdE7declvalIRKSB_EEEEESD_, symObjAddr: 0x6454, symBinAddr: 0x10000A768, symSize: 0x24 }
  - { offsetInCU: 0xA9C9, offset: 0xA9C9, size: 0x8, addend: 0x0, symName: __ZNSt3__116__pad_and_outputB8ue170006IcNS_11char_traitsIcEEEENS_19ostreambuf_iteratorIT_T0_EES6_PKS4_S8_S8_RNS_8ios_baseES4_, symObjAddr: 0x6A10, symBinAddr: 0x10000AD24, symSize: 0x248 }
  - { offsetInCU: 0xAA98, offset: 0xAA98, size: 0x8, addend: 0x0, symName: __ZNSt3__19use_facetB8ue170006INS_5ctypeIcEEEERKT_RKNS_6localeE, symObjAddr: 0x6FC0, symBinAddr: 0x10000B2D4, symSize: 0x2C }
  - { offsetInCU: 0xAF65, offset: 0xAF65, size: 0x8, addend: 0x0, symName: __ZNSt3__112__to_addressB8ue170006IKcEEPT_S3_, symObjAddr: 0x7058, symBinAddr: 0x10000B36C, symSize: 0x14 }
  - { offsetInCU: 0xB191, offset: 0xB191, size: 0x8, addend: 0x0, symName: __ZSt28__throw_bad_array_new_lengthB8ue170006v, symObjAddr: 0x2CD8, symBinAddr: 0x100006FEC, symSize: 0x34 }
  - { offsetInCU: 0xBBCD, offset: 0xBBCD, size: 0x8, addend: 0x0, symName: __ZNSt3__16vectorINS_12basic_stringIcNS_11char_traitsIcEENS_9allocatorIcEEEENS4_IS6_EEE26__swap_out_circular_bufferERNS_14__split_bufferIS6_RS7_EE, symObjAddr: 0x55E0, symBinAddr: 0x1000098F4, symSize: 0x110 }
  - { offsetInCU: 0xDFDD, offset: 0xDFDD, size: 0x8, addend: 0x0, symName: __Z9wordMatchRNSt3__16vectorINS_12basic_stringIcNS_11char_traitsIcEENS_9allocatorIcEEEENS4_IS6_EEEERS6_, symObjAddr: 0x0, symBinAddr: 0x100004314, symSize: 0x424 }
  - { offsetInCU: 0xE14D, offset: 0xE14D, size: 0x8, addend: 0x0, symName: __ZNSt3__113unordered_mapIciNS_4hashIcEENS_8equal_toIcEENS_9allocatorINS_4pairIKciEEEEEC1B8ue170006Ev, symObjAddr: 0x424, symBinAddr: 0x100004738, symSize: 0x2C }
  - { offsetInCU: 0xE176, offset: 0xE176, size: 0x8, addend: 0x0, symName: __ZNKSt3__112basic_stringIcNS_11char_traitsIcEENS_9allocatorIcEEE4sizeB8ue170006Ev, symObjAddr: 0x450, symBinAddr: 0x100004764, symSize: 0x54 }
  - { offsetInCU: 0xE19A, offset: 0xE19A, size: 0x8, addend: 0x0, symName: __ZNSt3__113unordered_mapIciNS_4hashIcEENS_8equal_toIcEENS_9allocatorINS_4pairIKciEEEEEixERS7_, symObjAddr: 0x4A4, symBinAddr: 0x1000047B8, symSize: 0x128 }
  - { offsetInCU: 0xE1FE, offset: 0xE1FE, size: 0x8, addend: 0x0, symName: __ZNSt3__112basic_stringIcNS_11char_traitsIcEENS_9allocatorIcEEEixB8ue170006Em, symObjAddr: 0x5CC, symBinAddr: 0x1000048E0, symSize: 0x30 }
  - { offsetInCU: 0xE232, offset: 0xE232, size: 0x8, addend: 0x0, symName: __ZNSt3__112basic_stringIcNS_11char_traitsIcEENS_9allocatorIcEEEC1B8ue170006Ev, symObjAddr: 0x5FC, symBinAddr: 0x100004910, symSize: 0x2C }
  - { offsetInCU: 0xE25A, offset: 0xE25A, size: 0x8, addend: 0x0, symName: __ZNSt3__16vectorINS_12basic_stringIcNS_11char_traitsIcEENS_9allocatorIcEEEENS4_IS6_EEE5beginB8ue170006Ev, symObjAddr: 0x628, symBinAddr: 0x10000493C, symSize: 0x30 }
  - { offsetInCU: 0xE280, offset: 0xE280, size: 0x8, addend: 0x0, symName: __ZNSt3__16vectorINS_12basic_stringIcNS_11char_traitsIcEENS_9allocatorIcEEEENS4_IS6_EEE3endB8ue170006Ev, symObjAddr: 0x658, symBinAddr: 0x10000496C, symSize: 0x30 }
  - { offsetInCU: 0xE2A7, offset: 0xE2A7, size: 0x8, addend: 0x0, symName: __ZNKSt3__111__wrap_iterIPNS_12basic_stringIcNS_11char_traitsIcEENS_9allocatorIcEEEEEdeB8ue170006Ev, symObjAddr: 0x6BC, symBinAddr: 0x1000049D0, symSize: 0x18 }
  - { offsetInCU: 0xE2CC, offset: 0xE2CC, size: 0x8, addend: 0x0, symName: __ZNSt3__112basic_stringIcNS_11char_traitsIcEENS_9allocatorIcEEE5beginB8ue170006Ev, symObjAddr: 0x6D4, symBinAddr: 0x1000049E8, symSize: 0x60 }
  - { offsetInCU: 0xE2F1, offset: 0xE2F1, size: 0x8, addend: 0x0, symName: __ZNSt3__112basic_stringIcNS_11char_traitsIcEENS_9allocatorIcEEE3endB8ue170006Ev, symObjAddr: 0x734, symBinAddr: 0x100004A48, symSize: 0x54 }
  - { offsetInCU: 0xE316, offset: 0xE316, size: 0x8, addend: 0x0, symName: __ZNKSt3__111__wrap_iterIPcEdeB8ue170006Ev, symObjAddr: 0x7BC, symBinAddr: 0x100004AD0, symSize: 0x18 }
  - { offsetInCU: 0xE33B, offset: 0xE33B, size: 0x8, addend: 0x0, symName: __ZNSt3__111__wrap_iterIPcEppB8ue170006Ev, symObjAddr: 0x7D4, symBinAddr: 0x100004AE8, symSize: 0x20 }
  - { offsetInCU: 0xE360, offset: 0xE360, size: 0x8, addend: 0x0, symName: __ZNSt3__113unordered_mapIciNS_4hashIcEENS_8equal_toIcEENS_9allocatorINS_4pairIKciEEEEE5beginB8ue170006Ev, symObjAddr: 0x7F4, symBinAddr: 0x100004B08, symSize: 0x38 }
  - { offsetInCU: 0xE385, offset: 0xE385, size: 0x8, addend: 0x0, symName: __ZNSt3__113unordered_mapIciNS_4hashIcEENS_8equal_toIcEENS_9allocatorINS_4pairIKciEEEEE3endB8ue170006Ev, symObjAddr: 0x85C, symBinAddr: 0x100004B70, symSize: 0x38 }
  - { offsetInCU: 0xE3AA, offset: 0xE3AA, size: 0x8, addend: 0x0, symName: __ZNKSt3__119__hash_map_iteratorINS_15__hash_iteratorIPNS_11__hash_nodeINS_17__hash_value_typeIciEEPvEEEEEptB8ue170006Ev, symObjAddr: 0x894, symBinAddr: 0x100004BA8, symSize: 0x2C }
  - { offsetInCU: 0xE3CF, offset: 0xE3CF, size: 0x8, addend: 0x0, symName: __ZNKSt3__113unordered_mapIciNS_4hashIcEENS_8equal_toIcEENS_9allocatorINS_4pairIKciEEEEE5countB8ue170006ERS7_, symObjAddr: 0x8C0, symBinAddr: 0x100004BD4, symSize: 0x2C }
  - { offsetInCU: 0xE403, offset: 0xE403, size: 0x8, addend: 0x0, symName: __ZNSt3__119__hash_map_iteratorINS_15__hash_iteratorIPNS_11__hash_nodeINS_17__hash_value_typeIciEEPvEEEEEppB8ue170006Ei, symObjAddr: 0x8EC, symBinAddr: 0x100004C00, symSize: 0x34 }
  - { offsetInCU: 0xE443, offset: 0xE443, size: 0x8, addend: 0x0, symName: __ZNSt3__113unordered_mapIciNS_4hashIcEENS_8equal_toIcEENS_9allocatorINS_4pairIKciEEEEED1B8ue170006Ev, symObjAddr: 0x920, symBinAddr: 0x100004C34, symSize: 0x2C }
  - { offsetInCU: 0xE46C, offset: 0xE46C, size: 0x8, addend: 0x0, symName: __ZNSt3__111__wrap_iterIPNS_12basic_stringIcNS_11char_traitsIcEENS_9allocatorIcEEEEEppB8ue170006Ev, symObjAddr: 0x958, symBinAddr: 0x100004C6C, symSize: 0x20 }
  - { offsetInCU: 0xE496, offset: 0xE496, size: 0x8, addend: 0x0, symName: __ZNSt3__112basic_stringIcNS_11char_traitsIcEENS_9allocatorIcEEEC1B8ue170006ILi0EEEPKc, symObjAddr: 0x978, symBinAddr: 0x100004C8C, symSize: 0x34 }
  - { offsetInCU: 0xE4D4, offset: 0xE4D4, size: 0x8, addend: 0x0, symName: _main, symObjAddr: 0x9AC, symBinAddr: 0x100004CC0, symSize: 0x730 }
  - { offsetInCU: 0xE51B, offset: 0xE51B, size: 0x8, addend: 0x0, symName: __ZNSt3__16vectorINS_12basic_stringIcNS_11char_traitsIcEENS_9allocatorIcEEEENS4_IS6_EEEC1B8ue170006Ev, symObjAddr: 0x10DC, symBinAddr: 0x1000053F0, symSize: 0x2C }
  - { offsetInCU: 0xE543, offset: 0xE543, size: 0x8, addend: 0x0, symName: __ZNSt3__16vectorINS_12basic_stringIcNS_11char_traitsIcEENS_9allocatorIcEEEENS4_IS6_EEE9push_backB8ue170006EOS6_, symObjAddr: 0x1108, symBinAddr: 0x10000541C, symSize: 0x6C }
  - { offsetInCU: 0xE579, offset: 0xE579, size: 0x8, addend: 0x0, symName: __ZNSt3__113basic_ostreamIcNS_11char_traitsIcEEElsB8ue170006EPFRS3_S4_E, symObjAddr: 0x11C0, symBinAddr: 0x1000054D4, symSize: 0x2C }
  - { offsetInCU: 0xE5AC, offset: 0xE5AC, size: 0x8, addend: 0x0, symName: __ZNSt3__112basic_stringIcNS_11char_traitsIcEENS_9allocatorIcEEEaSB8ue170006EPKc, symObjAddr: 0x1244, symBinAddr: 0x100005558, symSize: 0x2C }
  - { offsetInCU: 0xE5E0, offset: 0xE5E0, size: 0x8, addend: 0x0, symName: __ZNSt3__16vectorINS_12basic_stringIcNS_11char_traitsIcEENS_9allocatorIcEEEENS4_IS6_EEED1B8ue170006Ev, symObjAddr: 0x1270, symBinAddr: 0x100005584, symSize: 0x2C }
  - { offsetInCU: 0xE609, offset: 0xE609, size: 0x8, addend: 0x0, symName: __ZNSt3__113unordered_mapIciNS_4hashIcEENS_8equal_toIcEENS_9allocatorINS_4pairIKciEEEEEC2B8ue170006Ev, symObjAddr: 0x129C, symBinAddr: 0x1000055B0, symSize: 0x2C }
  - { offsetInCU: 0xE632, offset: 0xE632, size: 0x8, addend: 0x0, symName: __ZNSt3__112__hash_tableINS_17__hash_value_typeIciEENS_22__unordered_map_hasherIcS2_NS_4hashIcEENS_8equal_toIcEELb1EEENS_21__unordered_map_equalIcS2_S7_S5_Lb1EEENS_9allocatorIS2_EEEC1Ev, symObjAddr: 0x12C8, symBinAddr: 0x1000055DC, symSize: 0x2C }
  - { offsetInCU: 0xE65D, offset: 0xE65D, size: 0x8, addend: 0x0, symName: __ZNSt3__112__hash_tableINS_17__hash_value_typeIciEENS_22__unordered_map_hasherIcS2_NS_4hashIcEENS_8equal_toIcEELb1EEENS_21__unordered_map_equalIcS2_S7_S5_Lb1EEENS_9allocatorIS2_EEEC2Ev, symObjAddr: 0x12F4, symBinAddr: 0x100005608, symSize: 0xA4 }
  - { offsetInCU: 0xE688, offset: 0xE688, size: 0x8, addend: 0x0, symName: __ZNSt3__110unique_ptrIA_PNS_16__hash_node_baseIPNS_11__hash_nodeINS_17__hash_value_typeIciEEPvEEEENS_25__bucket_list_deallocatorINS_9allocatorIS9_EEEEEC1B8ue170006ILb1EvEEv, symObjAddr: 0x1398, symBinAddr: 0x1000056AC, symSize: 0x2C }
  - { offsetInCU: 0xE6BC, offset: 0xE6BC, size: 0x8, addend: 0x0, symName: __ZNSt3__117__compressed_pairINS_16__hash_node_baseIPNS_11__hash_nodeINS_17__hash_value_typeIciEEPvEEEENS_9allocatorIS6_EEEC1B8ue170006ILb1EvEEv, symObjAddr: 0x13C4, symBinAddr: 0x1000056D8, symSize: 0x2C }
  - { offsetInCU: 0xE6FA, offset: 0xE6FA, size: 0x8, addend: 0x0, symName: __ZNSt3__117__compressed_pairImNS_22__unordered_map_hasherIcNS_17__hash_value_typeIciEENS_4hashIcEENS_8equal_toIcEELb1EEEEC1B8ue170006IiNS_18__default_init_tagEEEOT_OT0_, symObjAddr: 0x13F0, symBinAddr: 0x100005704, symSize: 0x3C }
  - { offsetInCU: 0xE756, offset: 0xE756, size: 0x8, addend: 0x0, symName: __ZNSt3__117__compressed_pairIfNS_21__unordered_map_equalIcNS_17__hash_value_typeIciEENS_8equal_toIcEENS_4hashIcEELb1EEEEC1B8ue170006IfNS_18__default_init_tagEEEOT_OT0_, symObjAddr: 0x142C, symBinAddr: 0x100005740, symSize: 0x3C }
  - { offsetInCU: 0xE7AD, offset: 0xE7AD, size: 0x8, addend: 0x0, symName: __ZNSt3__110unique_ptrIA_PNS_16__hash_node_baseIPNS_11__hash_nodeINS_17__hash_value_typeIciEEPvEEEENS_25__bucket_list_deallocatorINS_9allocatorIS9_EEEEED1B8ue170006Ev, symObjAddr: 0x1468, symBinAddr: 0x10000577C, symSize: 0x2C }
  - { offsetInCU: 0xE7D6, offset: 0xE7D6, size: 0x8, addend: 0x0, symName: __ZNSt3__110unique_ptrIA_PNS_16__hash_node_baseIPNS_11__hash_nodeINS_17__hash_value_typeIciEEPvEEEENS_25__bucket_list_deallocatorINS_9allocatorIS9_EEEEEC2B8ue170006ILb1EvEEv, symObjAddr: 0x1494, symBinAddr: 0x1000057A8, symSize: 0x50 }
  - { offsetInCU: 0xE80F, offset: 0xE80F, size: 0x8, addend: 0x0, symName: __ZNSt3__117__compressed_pairIPPNS_16__hash_node_baseIPNS_11__hash_nodeINS_17__hash_value_typeIciEEPvEEEENS_25__bucket_list_deallocatorINS_9allocatorIS9_EEEEEC1B8ue170006INS_16__value_init_tagESH_EEOT_OT0_, symObjAddr: 0x14E4, symBinAddr: 0x1000057F8, symSize: 0x3C }
  - { offsetInCU: 0xE866, offset: 0xE866, size: 0x8, addend: 0x0, symName: __ZNSt3__117__compressed_pairIPPNS_16__hash_node_baseIPNS_11__hash_nodeINS_17__hash_value_typeIciEEPvEEEENS_25__bucket_list_deallocatorINS_9allocatorIS9_EEEEEC2B8ue170006INS_16__value_init_tagESH_EEOT_OT0_, symObjAddr: 0x1520, symBinAddr: 0x100005834, symSize: 0x40 }
  - { offsetInCU: 0xE8BD, offset: 0xE8BD, size: 0x8, addend: 0x0, symName: __ZNSt3__122__compressed_pair_elemIPPNS_16__hash_node_baseIPNS_11__hash_nodeINS_17__hash_value_typeIciEEPvEEEELi0ELb0EEC2B8ue170006ENS_16__value_init_tagE, symObjAddr: 0x1560, symBinAddr: 0x100005874, symSize: 0x18 }
  - { offsetInCU: 0xE8F1, offset: 0xE8F1, size: 0x8, addend: 0x0, symName: __ZNSt3__122__compressed_pair_elemINS_25__bucket_list_deallocatorINS_9allocatorIPNS_16__hash_node_baseIPNS_11__hash_nodeINS_17__hash_value_typeIciEEPvEEEEEEEELi1ELb0EEC2B8ue170006ENS_16__value_init_tagE, symObjAddr: 0x1578, symBinAddr: 0x10000588C, symSize: 0x2C }
  - { offsetInCU: 0xE925, offset: 0xE925, size: 0x8, addend: 0x0, symName: __ZNSt3__125__bucket_list_deallocatorINS_9allocatorIPNS_16__hash_node_baseIPNS_11__hash_nodeINS_17__hash_value_typeIciEEPvEEEEEEEC1B8ue170006Ev, symObjAddr: 0x15A4, symBinAddr: 0x1000058B8, symSize: 0x2C }
  - { offsetInCU: 0xE94E, offset: 0xE94E, size: 0x8, addend: 0x0, symName: __ZNSt3__125__bucket_list_deallocatorINS_9allocatorIPNS_16__hash_node_baseIPNS_11__hash_nodeINS_17__hash_value_typeIciEEPvEEEEEEEC2B8ue170006Ev, symObjAddr: 0x15D0, symBinAddr: 0x1000058E4, symSize: 0x38 }
  - { offsetInCU: 0xE977, offset: 0xE977, size: 0x8, addend: 0x0, symName: __ZNSt3__117__compressed_pairImNS_9allocatorIPNS_16__hash_node_baseIPNS_11__hash_nodeINS_17__hash_value_typeIciEEPvEEEEEEEC1B8ue170006IiNS_18__default_init_tagEEEOT_OT0_, symObjAddr: 0x1608, symBinAddr: 0x10000591C, symSize: 0x3C }
  - { offsetInCU: 0xE9CE, offset: 0xE9CE, size: 0x8, addend: 0x0, symName: __ZNSt3__117__compressed_pairImNS_9allocatorIPNS_16__hash_node_baseIPNS_11__hash_nodeINS_17__hash_value_typeIciEEPvEEEEEEEC2B8ue170006IiNS_18__default_init_tagEEEOT_OT0_, symObjAddr: 0x1644, symBinAddr: 0x100005958, symSize: 0x40 }
  - { offsetInCU: 0xEA25, offset: 0xEA25, size: 0x8, addend: 0x0, symName: __ZNSt3__122__compressed_pair_elemImLi0ELb0EEC2B8ue170006IivEEOT_, symObjAddr: 0x1684, symBinAddr: 0x100005998, symSize: 0x24 }
  - { offsetInCU: 0xEA66, offset: 0xEA66, size: 0x8, addend: 0x0, symName: __ZNSt3__122__compressed_pair_elemINS_9allocatorIPNS_16__hash_node_baseIPNS_11__hash_nodeINS_17__hash_value_typeIciEEPvEEEEEELi1ELb1EEC2B8ue170006ENS_18__default_init_tagE, symObjAddr: 0x16A8, symBinAddr: 0x1000059BC, symSize: 0x2C }
  - { offsetInCU: 0xEA9A, offset: 0xEA9A, size: 0x8, addend: 0x0, symName: __ZNSt3__19allocatorIPNS_16__hash_node_baseIPNS_11__hash_nodeINS_17__hash_value_typeIciEEPvEEEEEC2B8ue170006Ev, symObjAddr: 0x16D4, symBinAddr: 0x1000059E8, symSize: 0x2C }
  - { offsetInCU: 0xEAC3, offset: 0xEAC3, size: 0x8, addend: 0x0, symName: __ZNSt3__116__non_trivial_ifILb1ENS_9allocatorIPNS_16__hash_node_baseIPNS_11__hash_nodeINS_17__hash_value_typeIciEEPvEEEEEEEC2B8ue170006Ev, symObjAddr: 0x1700, symBinAddr: 0x100005A14, symSize: 0x14 }
  - { offsetInCU: 0xEAEC, offset: 0xEAEC, size: 0x8, addend: 0x0, symName: __ZNSt3__117__compressed_pairINS_16__hash_node_baseIPNS_11__hash_nodeINS_17__hash_value_typeIciEEPvEEEENS_9allocatorIS6_EEEC2B8ue170006ILb1EvEEv, symObjAddr: 0x1714, symBinAddr: 0x100005A28, symSize: 0x34 }
  - { offsetInCU: 0xEB20, offset: 0xEB20, size: 0x8, addend: 0x0, symName: __ZNSt3__122__compressed_pair_elemINS_16__hash_node_baseIPNS_11__hash_nodeINS_17__hash_value_typeIciEEPvEEEELi0ELb0EEC2B8ue170006ENS_16__value_init_tagE, symObjAddr: 0x1748, symBinAddr: 0x100005A5C, symSize: 0x2C }
  - { offsetInCU: 0xEB54, offset: 0xEB54, size: 0x8, addend: 0x0, symName: __ZNSt3__122__compressed_pair_elemINS_9allocatorINS_11__hash_nodeINS_17__hash_value_typeIciEEPvEEEELi1ELb1EEC2B8ue170006ENS_16__value_init_tagE, symObjAddr: 0x1774, symBinAddr: 0x100005A88, symSize: 0x2C }
  - { offsetInCU: 0xEB88, offset: 0xEB88, size: 0x8, addend: 0x0, symName: __ZNSt3__116__hash_node_baseIPNS_11__hash_nodeINS_17__hash_value_typeIciEEPvEEEC1B8ue170006Ev, symObjAddr: 0x17A0, symBinAddr: 0x100005AB4, symSize: 0x2C }
  - { offsetInCU: 0xEBB1, offset: 0xEBB1, size: 0x8, addend: 0x0, symName: __ZNSt3__116__hash_node_baseIPNS_11__hash_nodeINS_17__hash_value_typeIciEEPvEEEC2B8ue170006Ev, symObjAddr: 0x17CC, symBinAddr: 0x100005AE0, symSize: 0x18 }
  - { offsetInCU: 0xEBDA, offset: 0xEBDA, size: 0x8, addend: 0x0, symName: __ZNSt3__19allocatorINS_11__hash_nodeINS_17__hash_value_typeIciEEPvEEEC2B8ue170006Ev, symObjAddr: 0x17E4, symBinAddr: 0x100005AF8, symSize: 0x2C }
  - { offsetInCU: 0xEC03, offset: 0xEC03, size: 0x8, addend: 0x0, symName: __ZNSt3__116__non_trivial_ifILb1ENS_9allocatorINS_11__hash_nodeINS_17__hash_value_typeIciEEPvEEEEEC2B8ue170006Ev, symObjAddr: 0x1810, symBinAddr: 0x100005B24, symSize: 0x14 }
  - { offsetInCU: 0xEC2C, offset: 0xEC2C, size: 0x8, addend: 0x0, symName: __ZNSt3__117__compressed_pairImNS_22__unordered_map_hasherIcNS_17__hash_value_typeIciEENS_4hashIcEENS_8equal_toIcEELb1EEEEC2B8ue170006IiNS_18__default_init_tagEEEOT_OT0_, symObjAddr: 0x1824, symBinAddr: 0x100005B38, symSize: 0x40 }
  - { offsetInCU: 0xEC83, offset: 0xEC83, size: 0x8, addend: 0x0, symName: __ZNSt3__122__compressed_pair_elemINS_22__unordered_map_hasherIcNS_17__hash_value_typeIciEENS_4hashIcEENS_8equal_toIcEELb1EEELi1ELb1EEC2B8ue170006ENS_18__default_init_tagE, symObjAddr: 0x1864, symBinAddr: 0x100005B78, symSize: 0x2C }
  - { offsetInCU: 0xECB7, offset: 0xECB7, size: 0x8, addend: 0x0, symName: __ZNSt3__122__unordered_map_hasherIcNS_17__hash_value_typeIciEENS_4hashIcEENS_8equal_toIcEELb1EEC2B8ue170006Ev, symObjAddr: 0x1890, symBinAddr: 0x100005BA4, symSize: 0x14 }
  - { offsetInCU: 0xECE0, offset: 0xECE0, size: 0x8, addend: 0x0, symName: __ZNSt3__117__compressed_pairIfNS_21__unordered_map_equalIcNS_17__hash_value_typeIciEENS_8equal_toIcEENS_4hashIcEELb1EEEEC2B8ue170006IfNS_18__default_init_tagEEEOT_OT0_, symObjAddr: 0x18A4, symBinAddr: 0x100005BB8, symSize: 0x40 }
  - { offsetInCU: 0xED37, offset: 0xED37, size: 0x8, addend: 0x0, symName: __ZNSt3__122__compressed_pair_elemIfLi0ELb0EEC2B8ue170006IfvEEOT_, symObjAddr: 0x18E4, symBinAddr: 0x100005BF8, symSize: 0x24 }
  - { offsetInCU: 0xED78, offset: 0xED78, size: 0x8, addend: 0x0, symName: __ZNSt3__122__compressed_pair_elemINS_21__unordered_map_equalIcNS_17__hash_value_typeIciEENS_8equal_toIcEENS_4hashIcEELb1EEELi1ELb1EEC2B8ue170006ENS_18__default_init_tagE, symObjAddr: 0x1908, symBinAddr: 0x100005C1C, symSize: 0x2C }
  - { offsetInCU: 0xEDAC, offset: 0xEDAC, size: 0x8, addend: 0x0, symName: __ZNSt3__121__unordered_map_equalIcNS_17__hash_value_typeIciEENS_8equal_toIcEENS_4hashIcEELb1EEC2B8ue170006Ev, symObjAddr: 0x1934, symBinAddr: 0x100005C48, symSize: 0x14 }
  - { offsetInCU: 0xEDD5, offset: 0xEDD5, size: 0x8, addend: 0x0, symName: __ZNSt3__110unique_ptrIA_PNS_16__hash_node_baseIPNS_11__hash_nodeINS_17__hash_value_typeIciEEPvEEEENS_25__bucket_list_deallocatorINS_9allocatorIS9_EEEEED2B8ue170006Ev, symObjAddr: 0x1948, symBinAddr: 0x100005C5C, symSize: 0x30 }
  - { offsetInCU: 0xEDFE, offset: 0xEDFE, size: 0x8, addend: 0x0, symName: __ZNSt3__110unique_ptrIA_PNS_16__hash_node_baseIPNS_11__hash_nodeINS_17__hash_value_typeIciEEPvEEEENS_25__bucket_list_deallocatorINS_9allocatorIS9_EEEEE5resetB8ue170006EDn, symObjAddr: 0x1978, symBinAddr: 0x100005C8C, symSize: 0x6C }
  - { offsetInCU: 0xEE3E, offset: 0xEE3E, size: 0x8, addend: 0x0, symName: __ZNSt3__117__compressed_pairIPPNS_16__hash_node_baseIPNS_11__hash_nodeINS_17__hash_value_typeIciEEPvEEEENS_25__bucket_list_deallocatorINS_9allocatorIS9_EEEEE5firstB8ue170006Ev, symObjAddr: 0x19E4, symBinAddr: 0x100005CF8, symSize: 0x24 }
  - { offsetInCU: 0xEE63, offset: 0xEE63, size: 0x8, addend: 0x0, symName: __ZNSt3__117__compressed_pairIPPNS_16__hash_node_baseIPNS_11__hash_nodeINS_17__hash_value_typeIciEEPvEEEENS_25__bucket_list_deallocatorINS_9allocatorIS9_EEEEE6secondB8ue170006Ev, symObjAddr: 0x1A08, symBinAddr: 0x100005D1C, symSize: 0x28 }
  - { offsetInCU: 0xEE88, offset: 0xEE88, size: 0x8, addend: 0x0, symName: __ZNSt3__125__bucket_list_deallocatorINS_9allocatorIPNS_16__hash_node_baseIPNS_11__hash_nodeINS_17__hash_value_typeIciEEPvEEEEEEEclB8ue170006EPSA_, symObjAddr: 0x1A30, symBinAddr: 0x100005D44, symSize: 0x58 }
  - { offsetInCU: 0xEEBC, offset: 0xEEBC, size: 0x8, addend: 0x0, symName: __ZNSt3__122__compressed_pair_elemIPPNS_16__hash_node_baseIPNS_11__hash_nodeINS_17__hash_value_typeIciEEPvEEEELi0ELb0EE5__getB8ue170006Ev, symObjAddr: 0x1A88, symBinAddr: 0x100005D9C, symSize: 0x14 }
  - { offsetInCU: 0xEEE1, offset: 0xEEE1, size: 0x8, addend: 0x0, symName: __ZNSt3__122__compressed_pair_elemINS_25__bucket_list_deallocatorINS_9allocatorIPNS_16__hash_node_baseIPNS_11__hash_nodeINS_17__hash_value_typeIciEEPvEEEEEEEELi1ELb0EE5__getB8ue170006Ev, symObjAddr: 0x1A9C, symBinAddr: 0x100005DB0, symSize: 0x14 }
  - { offsetInCU: 0xEF06, offset: 0xEF06, size: 0x8, addend: 0x0, symName: __ZNSt3__116allocator_traitsINS_9allocatorIPNS_16__hash_node_baseIPNS_11__hash_nodeINS_17__hash_value_typeIciEEPvEEEEEEE10deallocateB8ue170006ERSB_PSA_m, symObjAddr: 0x1AB0, symBinAddr: 0x100005DC4, symSize: 0x34 }
  - { offsetInCU: 0xEF48, offset: 0xEF48, size: 0x8, addend: 0x0, symName: __ZNSt3__125__bucket_list_deallocatorINS_9allocatorIPNS_16__hash_node_baseIPNS_11__hash_nodeINS_17__hash_value_typeIciEEPvEEEEEEE7__allocB8ue170006Ev, symObjAddr: 0x1AE4, symBinAddr: 0x100005DF8, symSize: 0x24 }
  - { offsetInCU: 0xEF6D, offset: 0xEF6D, size: 0x8, addend: 0x0, symName: __ZNSt3__125__bucket_list_deallocatorINS_9allocatorIPNS_16__hash_node_baseIPNS_11__hash_nodeINS_17__hash_value_typeIciEEPvEEEEEEE4sizeB8ue170006Ev, symObjAddr: 0x1B08, symBinAddr: 0x100005E1C, symSize: 0x24 }
  - { offsetInCU: 0xEF92, offset: 0xEF92, size: 0x8, addend: 0x0, symName: __ZNSt3__19allocatorIPNS_16__hash_node_baseIPNS_11__hash_nodeINS_17__hash_value_typeIciEEPvEEEEE10deallocateB8ue170006EPS9_m, symObjAddr: 0x1B2C, symBinAddr: 0x100005E40, symSize: 0x70 }
  - { offsetInCU: 0xEFD3, offset: 0xEFD3, size: 0x8, addend: 0x0, symName: __ZNSt3__117__compressed_pairImNS_9allocatorIPNS_16__hash_node_baseIPNS_11__hash_nodeINS_17__hash_value_typeIciEEPvEEEEEEE6secondB8ue170006Ev, symObjAddr: 0x1C24, symBinAddr: 0x100005F38, symSize: 0x24 }
  - { offsetInCU: 0xEFF8, offset: 0xEFF8, size: 0x8, addend: 0x0, symName: __ZNSt3__122__compressed_pair_elemINS_9allocatorIPNS_16__hash_node_baseIPNS_11__hash_nodeINS_17__hash_value_typeIciEEPvEEEEEELi1ELb1EE5__getB8ue170006Ev, symObjAddr: 0x1C48, symBinAddr: 0x100005F5C, symSize: 0x14 }
  - { offsetInCU: 0xF01D, offset: 0xF01D, size: 0x8, addend: 0x0, symName: __ZNSt3__117__compressed_pairImNS_9allocatorIPNS_16__hash_node_baseIPNS_11__hash_nodeINS_17__hash_value_typeIciEEPvEEEEEEE5firstB8ue170006Ev, symObjAddr: 0x1C5C, symBinAddr: 0x100005F70, symSize: 0x24 }
  - { offsetInCU: 0xF042, offset: 0xF042, size: 0x8, addend: 0x0, symName: __ZNSt3__122__compressed_pair_elemImLi0ELb0EE5__getB8ue170006Ev, symObjAddr: 0x1C80, symBinAddr: 0x100005F94, symSize: 0x14 }
  - { offsetInCU: 0xF067, offset: 0xF067, size: 0x8, addend: 0x0, symName: __ZNSt3__113unordered_mapIciNS_4hashIcEENS_8equal_toIcEENS_9allocatorINS_4pairIKciEEEEED2B8ue170006Ev, symObjAddr: 0x1C94, symBinAddr: 0x100005FA8, symSize: 0x2C }
  - { offsetInCU: 0xF090, offset: 0xF090, size: 0x8, addend: 0x0, symName: __ZNSt3__112__hash_tableINS_17__hash_value_typeIciEENS_22__unordered_map_hasherIcS2_NS_4hashIcEENS_8equal_toIcEELb1EEENS_21__unordered_map_equalIcS2_S7_S5_Lb1EEENS_9allocatorIS2_EEED1Ev, symObjAddr: 0x1CC0, symBinAddr: 0x100005FD4, symSize: 0x2C }
  - { offsetInCU: 0xF0BB, offset: 0xF0BB, size: 0x8, addend: 0x0, symName: __ZNSt3__112__hash_tableINS_17__hash_value_typeIciEENS_22__unordered_map_hasherIcS2_NS_4hashIcEENS_8equal_toIcEELb1EEENS_21__unordered_map_equalIcS2_S7_S5_Lb1EEENS_9allocatorIS2_EEED2Ev, symObjAddr: 0x1CEC, symBinAddr: 0x100006000, symSize: 0x48 }
  - { offsetInCU: 0xF0E5, offset: 0xF0E5, size: 0x8, addend: 0x0, symName: __ZNSt3__112__hash_tableINS_17__hash_value_typeIciEENS_22__unordered_map_hasherIcS2_NS_4hashIcEENS_8equal_toIcEELb1EEENS_21__unordered_map_equalIcS2_S7_S5_Lb1EEENS_9allocatorIS2_EEE17__deallocate_nodeEPNS_16__hash_node_baseIPNS_11__hash_nodeIS2_PvEEEE, symObjAddr: 0x1D34, symBinAddr: 0x100006048, symSize: 0xBC }
  - { offsetInCU: 0xF14E, offset: 0xF14E, size: 0x8, addend: 0x0, symName: __ZNSt3__117__compressed_pairINS_16__hash_node_baseIPNS_11__hash_nodeINS_17__hash_value_typeIciEEPvEEEENS_9allocatorIS6_EEE5firstB8ue170006Ev, symObjAddr: 0x1DF0, symBinAddr: 0x100006104, symSize: 0x24 }
  - { offsetInCU: 0xF173, offset: 0xF173, size: 0x8, addend: 0x0, symName: __ZNSt3__112__hash_tableINS_17__hash_value_typeIciEENS_22__unordered_map_hasherIcS2_NS_4hashIcEENS_8equal_toIcEELb1EEENS_21__unordered_map_equalIcS2_S7_S5_Lb1EEENS_9allocatorIS2_EEE12__node_allocB8ue170006Ev, symObjAddr: 0x1E14, symBinAddr: 0x100006128, symSize: 0x28 }
  - { offsetInCU: 0xF198, offset: 0xF198, size: 0x8, addend: 0x0, symName: __ZNSt3__116__hash_node_baseIPNS_11__hash_nodeINS_17__hash_value_typeIciEEPvEEE8__upcastB8ue170006Ev, symObjAddr: 0x1E3C, symBinAddr: 0x100006150, symSize: 0x24 }
  - { offsetInCU: 0xF1BD, offset: 0xF1BD, size: 0x8, addend: 0x0, symName: __ZNSt3__116allocator_traitsINS_9allocatorINS_11__hash_nodeINS_17__hash_value_typeIciEEPvEEEEE7destroyB8ue170006INS_4pairIKciEEvvEEvRS7_PT_, symObjAddr: 0x1E60, symBinAddr: 0x100006174, symSize: 0x14 }
  - { offsetInCU: 0xF1F8, offset: 0xF1F8, size: 0x8, addend: 0x0, symName: __ZNSt3__122__hash_key_value_typesINS_17__hash_value_typeIciEEE9__get_ptrB8ue170006ERS2_, symObjAddr: 0x1E74, symBinAddr: 0x100006188, symSize: 0x24 }
  - { offsetInCU: 0xF21B, offset: 0xF21B, size: 0x8, addend: 0x0, symName: __ZNSt3__116allocator_traitsINS_9allocatorINS_11__hash_nodeINS_17__hash_value_typeIciEEPvEEEEE10deallocateB8ue170006ERS7_PS6_m, symObjAddr: 0x1E98, symBinAddr: 0x1000061AC, symSize: 0x34 }
  - { offsetInCU: 0xF25D, offset: 0xF25D, size: 0x8, addend: 0x0, symName: __ZNSt3__117__compressed_pairINS_16__hash_node_baseIPNS_11__hash_nodeINS_17__hash_value_typeIciEEPvEEEENS_9allocatorIS6_EEE6secondB8ue170006Ev, symObjAddr: 0x1ECC, symBinAddr: 0x1000061E0, symSize: 0x24 }
  - { offsetInCU: 0xF282, offset: 0xF282, size: 0x8, addend: 0x0, symName: __ZNSt3__122__compressed_pair_elemINS_9allocatorINS_11__hash_nodeINS_17__hash_value_typeIciEEPvEEEELi1ELb1EE5__getB8ue170006Ev, symObjAddr: 0x1EF0, symBinAddr: 0x100006204, symSize: 0x14 }
  - { offsetInCU: 0xF2A7, offset: 0xF2A7, size: 0x8, addend: 0x0, symName: __ZNSt3__114pointer_traitsIPNS_16__hash_node_baseIPNS_11__hash_nodeINS_17__hash_value_typeIciEEPvEEEEE10pointer_toB8ue170006ERS8_, symObjAddr: 0x1F04, symBinAddr: 0x100006218, symSize: 0x14 }
  - { offsetInCU: 0xF2CA, offset: 0xF2CA, size: 0x8, addend: 0x0, symName: __ZNSt3__117__hash_value_typeIciE11__get_valueB8ue170006Ev, symObjAddr: 0x1F18, symBinAddr: 0x10000622C, symSize: 0x14 }
  - { offsetInCU: 0xF2EF, offset: 0xF2EF, size: 0x8, addend: 0x0, symName: __ZNSt3__19allocatorINS_11__hash_nodeINS_17__hash_value_typeIciEEPvEEE10deallocateB8ue170006EPS5_m, symObjAddr: 0x1F2C, symBinAddr: 0x100006240, symSize: 0x74 }
  - { offsetInCU: 0xF330, offset: 0xF330, size: 0x8, addend: 0x0, symName: __ZNSt3__122__compressed_pair_elemINS_16__hash_node_baseIPNS_11__hash_nodeINS_17__hash_value_typeIciEEPvEEEELi0ELb0EE5__getB8ue170006Ev, symObjAddr: 0x1FA0, symBinAddr: 0x1000062B4, symSize: 0x14 }
  - { offsetInCU: 0xF355, offset: 0xF355, size: 0x8, addend: 0x0, symName: __ZNKSt3__112basic_stringIcNS_11char_traitsIcEENS_9allocatorIcEEE9__is_longB8ue170006Ev, symObjAddr: 0x1FB4, symBinAddr: 0x1000062C8, symSize: 0x74 }
  - { offsetInCU: 0xF37A, offset: 0xF37A, size: 0x8, addend: 0x0, symName: __ZNKSt3__112basic_stringIcNS_11char_traitsIcEENS_9allocatorIcEEE15__get_long_sizeB8ue170006Ev, symObjAddr: 0x2028, symBinAddr: 0x10000633C, symSize: 0x28 }
  - { offsetInCU: 0xF39F, offset: 0xF39F, size: 0x8, addend: 0x0, symName: __ZNKSt3__112basic_stringIcNS_11char_traitsIcEENS_9allocatorIcEEE16__get_short_sizeB8ue170006Ev, symObjAddr: 0x2050, symBinAddr: 0x100006364, symSize: 0x34 }
  - { offsetInCU: 0xF3C4, offset: 0xF3C4, size: 0x8, addend: 0x0, symName: __ZNKSt3__117__compressed_pairINS_12basic_stringIcNS_11char_traitsIcEENS_9allocatorIcEEE5__repES5_E5firstB8ue170006Ev, symObjAddr: 0x2084, symBinAddr: 0x100006398, symSize: 0x24 }
  - { offsetInCU: 0xF3E9, offset: 0xF3E9, size: 0x8, addend: 0x0, symName: __ZNKSt3__122__compressed_pair_elemINS_12basic_stringIcNS_11char_traitsIcEENS_9allocatorIcEEE5__repELi0ELb0EE5__getB8ue170006Ev, symObjAddr: 0x20A8, symBinAddr: 0x1000063BC, symSize: 0x14 }
  - { offsetInCU: 0xF40E, offset: 0xF40E, size: 0x8, addend: 0x0, symName: __ZNSt3__112basic_stringIcNS_11char_traitsIcEENS_9allocatorIcEEE13__get_pointerB8ue170006Ev, symObjAddr: 0x20BC, symBinAddr: 0x1000063D0, symSize: 0x54 }
  - { offsetInCU: 0xF433, offset: 0xF433, size: 0x8, addend: 0x0, symName: __ZNSt3__112basic_stringIcNS_11char_traitsIcEENS_9allocatorIcEEE18__get_long_pointerB8ue170006Ev, symObjAddr: 0x2110, symBinAddr: 0x100006424, symSize: 0x28 }
  - { offsetInCU: 0xF458, offset: 0xF458, size: 0x8, addend: 0x0, symName: __ZNSt3__112basic_stringIcNS_11char_traitsIcEENS_9allocatorIcEEE19__get_short_pointerB8ue170006Ev, symObjAddr: 0x2138, symBinAddr: 0x10000644C, symSize: 0x28 }
  - { offsetInCU: 0xF47D, offset: 0xF47D, size: 0x8, addend: 0x0, symName: __ZNSt3__117__compressed_pairINS_12basic_stringIcNS_11char_traitsIcEENS_9allocatorIcEEE5__repES5_E5firstB8ue170006Ev, symObjAddr: 0x2160, symBinAddr: 0x100006474, symSize: 0x24 }
  - { offsetInCU: 0xF4A2, offset: 0xF4A2, size: 0x8, addend: 0x0, symName: __ZNSt3__122__compressed_pair_elemINS_12basic_stringIcNS_11char_traitsIcEENS_9allocatorIcEEE5__repELi0ELb0EE5__getB8ue170006Ev, symObjAddr: 0x2184, symBinAddr: 0x100006498, symSize: 0x14 }
  - { offsetInCU: 0xF4C7, offset: 0xF4C7, size: 0x8, addend: 0x0, symName: __ZNSt3__114pointer_traitsIPcE10pointer_toB8ue170006ERc, symObjAddr: 0x2198, symBinAddr: 0x1000064AC, symSize: 0x14 }
  - { offsetInCU: 0xF4EA, offset: 0xF4EA, size: 0x8, addend: 0x0, symName: __ZNSt3__113unordered_mapIciNS_4hashIcEENS_8equal_toIcEENS_9allocatorINS_4pairIKciEEEEE4findB8ue170006ERS7_, symObjAddr: 0x21AC, symBinAddr: 0x1000064C0, symSize: 0x40 }
  - { offsetInCU: 0xF51D, offset: 0xF51D, size: 0x8, addend: 0x0, symName: __ZNSt3__113unordered_mapIciNS_4hashIcEENS_8equal_toIcEENS_9allocatorINS_4pairIKciEEEEE25__construct_node_with_keyERS7_, symObjAddr: 0x21EC, symBinAddr: 0x100006500, symSize: 0x144 }
  - { offsetInCU: 0xF571, offset: 0xF571, size: 0x8, addend: 0x0, symName: __ZNSt3__112__hash_tableINS_17__hash_value_typeIciEENS_22__unordered_map_hasherIcS2_NS_4hashIcEENS_8equal_toIcEELb1EEENS_21__unordered_map_equalIcS2_S7_S5_Lb1EEENS_9allocatorIS2_EEE20__node_insert_uniqueEPNS_11__hash_nodeIS2_PvEE, symObjAddr: 0x2330, symBinAddr: 0x100006644, symSize: 0xC4 }
  - { offsetInCU: 0xF5C5, offset: 0xF5C5, size: 0x8, addend: 0x0, symName: __ZNKSt3__110unique_ptrINS_11__hash_nodeINS_17__hash_value_typeIciEEPvEENS_26__hash_map_node_destructorINS_9allocatorIS5_EEEEE3getB8ue170006Ev, symObjAddr: 0x23F4, symBinAddr: 0x100006708, symSize: 0x28 }
  - { offsetInCU: 0xF5EA, offset: 0xF5EA, size: 0x8, addend: 0x0, symName: __ZNSt3__14pairINS_19__hash_map_iteratorINS_15__hash_iteratorIPNS_11__hash_nodeINS_17__hash_value_typeIciEEPvEEEEEEbEC1B8ue170006IS9_bEERKNS0_IT_T0_EE, symObjAddr: 0x241C, symBinAddr: 0x100006730, symSize: 0x34 }
  - { offsetInCU: 0xF633, offset: 0xF633, size: 0x8, addend: 0x0, symName: __ZNSt3__110unique_ptrINS_11__hash_nodeINS_17__hash_value_typeIciEEPvEENS_26__hash_map_node_destructorINS_9allocatorIS5_EEEEE7releaseB8ue170006Ev, symObjAddr: 0x2450, symBinAddr: 0x100006764, symSize: 0x44 }
  - { offsetInCU: 0xF667, offset: 0xF667, size: 0x8, addend: 0x0, symName: __ZNSt3__110unique_ptrINS_11__hash_nodeINS_17__hash_value_typeIciEEPvEENS_26__hash_map_node_destructorINS_9allocatorIS5_EEEEED1B8ue170006Ev, symObjAddr: 0x2494, symBinAddr: 0x1000067A8, symSize: 0x2C }
  - { offsetInCU: 0xF68F, offset: 0xF68F, size: 0x8, addend: 0x0, symName: __ZNSt3__112__hash_tableINS_17__hash_value_typeIciEENS_22__unordered_map_hasherIcS2_NS_4hashIcEENS_8equal_toIcEELb1EEENS_21__unordered_map_equalIcS2_S7_S5_Lb1EEENS_9allocatorIS2_EEE4findIcEENS_15__hash_iteratorIPNS_11__hash_nodeIS2_PvEEEERKT_, symObjAddr: 0x24C0, symBinAddr: 0x1000067D4, symSize: 0x1B0 }
  - { offsetInCU: 0xF719, offset: 0xF719, size: 0x8, addend: 0x0, symName: __ZNSt3__119__hash_map_iteratorINS_15__hash_iteratorIPNS_11__hash_nodeINS_17__hash_value_typeIciEEPvEEEEEC1B8ue170006ES8_, symObjAddr: 0x2670, symBinAddr: 0x100006984, symSize: 0x34 }
  - { offsetInCU: 0xF751, offset: 0xF751, size: 0x8, addend: 0x0, symName: __ZNSt3__112__hash_tableINS_17__hash_value_typeIciEENS_22__unordered_map_hasherIcS2_NS_4hashIcEENS_8equal_toIcEELb1EEENS_21__unordered_map_equalIcS2_S7_S5_Lb1EEENS_9allocatorIS2_EEE13hash_functionB8ue170006Ev, symObjAddr: 0x26A4, symBinAddr: 0x1000069B8, symSize: 0x28 }
  - { offsetInCU: 0xF776, offset: 0xF776, size: 0x8, addend: 0x0, symName: __ZNKSt3__122__unordered_map_hasherIcNS_17__hash_value_typeIciEENS_4hashIcEENS_8equal_toIcEELb1EEclB8ue170006ERKc, symObjAddr: 0x26CC, symBinAddr: 0x1000069E0, symSize: 0x30 }
  - { offsetInCU: 0xF7AA, offset: 0xF7AA, size: 0x8, addend: 0x0, symName: __ZNKSt3__112__hash_tableINS_17__hash_value_typeIciEENS_22__unordered_map_hasherIcS2_NS_4hashIcEENS_8equal_toIcEELb1EEENS_21__unordered_map_equalIcS2_S7_S5_Lb1EEENS_9allocatorIS2_EEE12bucket_countB8ue170006Ev, symObjAddr: 0x26FC, symBinAddr: 0x100006A10, symSize: 0x28 }
  - { offsetInCU: 0xF7CF, offset: 0xF7CF, size: 0x8, addend: 0x0, symName: __ZNKSt3__110unique_ptrIA_PNS_16__hash_node_baseIPNS_11__hash_nodeINS_17__hash_value_typeIciEEPvEEEENS_25__bucket_list_deallocatorINS_9allocatorIS9_EEEEEixB8ue170006Em, symObjAddr: 0x27BC, symBinAddr: 0x100006AD0, symSize: 0x34 }
  - { offsetInCU: 0xF803, offset: 0xF803, size: 0x8, addend: 0x0, symName: __ZNKSt3__116__hash_node_baseIPNS_11__hash_nodeINS_17__hash_value_typeIciEEPvEEE6__hashB8ue170006Ev, symObjAddr: 0x27F0, symBinAddr: 0x100006B04, symSize: 0x18 }
  - { offsetInCU: 0xF828, offset: 0xF828, size: 0x8, addend: 0x0, symName: __ZNSt3__112__hash_tableINS_17__hash_value_typeIciEENS_22__unordered_map_hasherIcS2_NS_4hashIcEENS_8equal_toIcEELb1EEENS_21__unordered_map_equalIcS2_S7_S5_Lb1EEENS_9allocatorIS2_EEE6key_eqB8ue170006Ev, symObjAddr: 0x2808, symBinAddr: 0x100006B1C, symSize: 0x28 }
  - { offsetInCU: 0xF84D, offset: 0xF84D, size: 0x8, addend: 0x0, symName: __ZNKSt3__121__unordered_map_equalIcNS_17__hash_value_typeIciEENS_8equal_toIcEENS_4hashIcEELb1EEclB8ue170006ERKS2_RKc, symObjAddr: 0x2830, symBinAddr: 0x100006B44, symSize: 0x48 }
  - { offsetInCU: 0xF890, offset: 0xF890, size: 0x8, addend: 0x0, symName: __ZNSt3__115__hash_iteratorIPNS_11__hash_nodeINS_17__hash_value_typeIciEEPvEEEC1B8ue170006EPNS_16__hash_node_baseIS6_EE, symObjAddr: 0x2878, symBinAddr: 0x100006B8C, symSize: 0x34 }
  - { offsetInCU: 0xF8C7, offset: 0xF8C7, size: 0x8, addend: 0x0, symName: __ZNSt3__112__hash_tableINS_17__hash_value_typeIciEENS_22__unordered_map_hasherIcS2_NS_4hashIcEENS_8equal_toIcEELb1EEENS_21__unordered_map_equalIcS2_S7_S5_Lb1EEENS_9allocatorIS2_EEE3endEv, symObjAddr: 0x28AC, symBinAddr: 0x100006BC0, symSize: 0x2C }
  - { offsetInCU: 0xF8EE, offset: 0xF8EE, size: 0x8, addend: 0x0, symName: __ZNSt3__117__compressed_pairImNS_22__unordered_map_hasherIcNS_17__hash_value_typeIciEENS_4hashIcEENS_8equal_toIcEELb1EEEE6secondB8ue170006Ev, symObjAddr: 0x28D8, symBinAddr: 0x100006BEC, symSize: 0x24 }
  - { offsetInCU: 0xF913, offset: 0xF913, size: 0x8, addend: 0x0, symName: __ZNSt3__122__compressed_pair_elemINS_22__unordered_map_hasherIcNS_17__hash_value_typeIciEENS_4hashIcEENS_8equal_toIcEELb1EEELi1ELb1EE5__getB8ue170006Ev, symObjAddr: 0x28FC, symBinAddr: 0x100006C10, symSize: 0x14 }
  - { offsetInCU: 0xF938, offset: 0xF938, size: 0x8, addend: 0x0, symName: __ZNKSt3__14hashIcEclB8ue170006Ec, symObjAddr: 0x2910, symBinAddr: 0x100006C24, symSize: 0x18 }
  - { offsetInCU: 0xF96C, offset: 0xF96C, size: 0x8, addend: 0x0, symName: __ZNKSt3__110unique_ptrIA_PNS_16__hash_node_baseIPNS_11__hash_nodeINS_17__hash_value_typeIciEEPvEEEENS_25__bucket_list_deallocatorINS_9allocatorIS9_EEEEE11get_deleterB8ue170006Ev, symObjAddr: 0x2928, symBinAddr: 0x100006C3C, symSize: 0x24 }
  - { offsetInCU: 0xF991, offset: 0xF991, size: 0x8, addend: 0x0, symName: __ZNKSt3__125__bucket_list_deallocatorINS_9allocatorIPNS_16__hash_node_baseIPNS_11__hash_nodeINS_17__hash_value_typeIciEEPvEEEEEEE4sizeB8ue170006Ev, symObjAddr: 0x294C, symBinAddr: 0x100006C60, symSize: 0x28 }
  - { offsetInCU: 0xF9B6, offset: 0xF9B6, size: 0x8, addend: 0x0, symName: __ZNKSt3__117__compressed_pairIPPNS_16__hash_node_baseIPNS_11__hash_nodeINS_17__hash_value_typeIciEEPvEEEENS_25__bucket_list_deallocatorINS_9allocatorIS9_EEEEE6secondB8ue170006Ev, symObjAddr: 0x2974, symBinAddr: 0x100006C88, symSize: 0x28 }
  - { offsetInCU: 0xF9DB, offset: 0xF9DB, size: 0x8, addend: 0x0, symName: __ZNKSt3__122__compressed_pair_elemINS_25__bucket_list_deallocatorINS_9allocatorIPNS_16__hash_node_baseIPNS_11__hash_nodeINS_17__hash_value_typeIciEEPvEEEEEEEELi1ELb0EE5__getB8ue170006Ev, symObjAddr: 0x299C, symBinAddr: 0x100006CB0, symSize: 0x14 }
  - { offsetInCU: 0xFA00, offset: 0xFA00, size: 0x8, addend: 0x0, symName: __ZNKSt3__117__compressed_pairImNS_9allocatorIPNS_16__hash_node_baseIPNS_11__hash_nodeINS_17__hash_value_typeIciEEPvEEEEEEE5firstB8ue170006Ev, symObjAddr: 0x29B0, symBinAddr: 0x100006CC4, symSize: 0x24 }
  - { offsetInCU: 0xFA25, offset: 0xFA25, size: 0x8, addend: 0x0, symName: __ZNKSt3__122__compressed_pair_elemImLi0ELb0EE5__getB8ue170006Ev, symObjAddr: 0x29D4, symBinAddr: 0x100006CE8, symSize: 0x14 }
  - { offsetInCU: 0xFA4A, offset: 0xFA4A, size: 0x8, addend: 0x0, symName: __ZNKSt3__117__compressed_pairIPPNS_16__hash_node_baseIPNS_11__hash_nodeINS_17__hash_value_typeIciEEPvEEEENS_25__bucket_list_deallocatorINS_9allocatorIS9_EEEEE5firstB8ue170006Ev, symObjAddr: 0x29E8, symBinAddr: 0x100006CFC, symSize: 0x24 }
  - { offsetInCU: 0xFA6F, offset: 0xFA6F, size: 0x8, addend: 0x0, symName: __ZNKSt3__122__compressed_pair_elemIPPNS_16__hash_node_baseIPNS_11__hash_nodeINS_17__hash_value_typeIciEEPvEEEELi0ELb0EE5__getB8ue170006Ev, symObjAddr: 0x2A0C, symBinAddr: 0x100006D20, symSize: 0x14 }
  - { offsetInCU: 0xFA94, offset: 0xFA94, size: 0x8, addend: 0x0, symName: __ZNSt3__117__compressed_pairIfNS_21__unordered_map_equalIcNS_17__hash_value_typeIciEENS_8equal_toIcEENS_4hashIcEELb1EEEE6secondB8ue170006Ev, symObjAddr: 0x2A20, symBinAddr: 0x100006D34, symSize: 0x24 }
  - { offsetInCU: 0xFAB9, offset: 0xFAB9, size: 0x8, addend: 0x0, symName: __ZNSt3__122__compressed_pair_elemINS_21__unordered_map_equalIcNS_17__hash_value_typeIciEENS_8equal_toIcEENS_4hashIcEELb1EEELi1ELb1EE5__getB8ue170006Ev, symObjAddr: 0x2A44, symBinAddr: 0x100006D58, symSize: 0x14 }
  - { offsetInCU: 0xFADE, offset: 0xFADE, size: 0x8, addend: 0x0, symName: __ZNKSt3__18equal_toIcEclB8ue170006ERKcS3_, symObjAddr: 0x2A58, symBinAddr: 0x100006D6C, symSize: 0x34 }
  - { offsetInCU: 0xFB21, offset: 0xFB21, size: 0x8, addend: 0x0, symName: __ZNKSt3__117__hash_value_typeIciE11__get_valueB8ue170006Ev, symObjAddr: 0x2A8C, symBinAddr: 0x100006DA0, symSize: 0x14 }
  - { offsetInCU: 0xFB46, offset: 0xFB46, size: 0x8, addend: 0x0, symName: __ZNSt3__115__hash_iteratorIPNS_11__hash_nodeINS_17__hash_value_typeIciEEPvEEEC2B8ue170006EPNS_16__hash_node_baseIS6_EE, symObjAddr: 0x2AA0, symBinAddr: 0x100006DB4, symSize: 0x20 }
  - { offsetInCU: 0xFB7E, offset: 0xFB7E, size: 0x8, addend: 0x0, symName: __ZNSt3__119__hash_map_iteratorINS_15__hash_iteratorIPNS_11__hash_nodeINS_17__hash_value_typeIciEEPvEEEEEC2B8ue170006ES8_, symObjAddr: 0x2AC0, symBinAddr: 0x100006DD4, symSize: 0x20 }
  - { offsetInCU: 0xFBB6, offset: 0xFBB6, size: 0x8, addend: 0x0, symName: __ZNSt3__116allocator_traitsINS_9allocatorINS_11__hash_nodeINS_17__hash_value_typeIciEEPvEEEEE8allocateB8ue170006ERS7_m, symObjAddr: 0x2AE0, symBinAddr: 0x100006DF4, symSize: 0x2C }
  - { offsetInCU: 0xFBE9, offset: 0xFBE9, size: 0x8, addend: 0x0, symName: __ZNSt3__126__hash_map_node_destructorINS_9allocatorINS_11__hash_nodeINS_17__hash_value_typeIciEEPvEEEEEC1B8ue170006ERS7_, symObjAddr: 0x2B0C, symBinAddr: 0x100006E20, symSize: 0x34 }
  - { offsetInCU: 0xFC26, offset: 0xFC26, size: 0x8, addend: 0x0, symName: __ZNSt3__110unique_ptrINS_11__hash_nodeINS_17__hash_value_typeIciEEPvEENS_26__hash_map_node_destructorINS_9allocatorIS5_EEEEEC1B8ue170006ILb1EvEEPS5_NS_16__dependent_typeINS_27__unique_ptr_deleter_sfinaeIS9_EEXT_EE20__good_rval_ref_typeE, symObjAddr: 0x2B40, symBinAddr: 0x100006E54, symSize: 0x3C }
  - { offsetInCU: 0xFC76, offset: 0xFC76, size: 0x8, addend: 0x0, symName: __ZNSt3__116allocator_traitsINS_9allocatorINS_11__hash_nodeINS_17__hash_value_typeIciEEPvEEEEE9constructB8ue170006IKcJRSA_EvEEvRS7_PT_DpOT0_, symObjAddr: 0x2B7C, symBinAddr: 0x100006E90, symSize: 0x34 }
  - { offsetInCU: 0xFCCD, offset: 0xFCCD, size: 0x8, addend: 0x0, symName: __ZNKSt3__110unique_ptrINS_11__hash_nodeINS_17__hash_value_typeIciEEPvEENS_26__hash_map_node_destructorINS_9allocatorIS5_EEEEEptB8ue170006Ev, symObjAddr: 0x2BB0, symBinAddr: 0x100006EC4, symSize: 0x28 }
  - { offsetInCU: 0xFCF2, offset: 0xFCF2, size: 0x8, addend: 0x0, symName: __ZNSt3__110unique_ptrINS_11__hash_nodeINS_17__hash_value_typeIciEEPvEENS_26__hash_map_node_destructorINS_9allocatorIS5_EEEEE11get_deleterB8ue170006Ev, symObjAddr: 0x2BD8, symBinAddr: 0x100006EEC, symSize: 0x24 }
  - { offsetInCU: 0xFD17, offset: 0xFD17, size: 0x8, addend: 0x0, symName: __ZNSt3__116allocator_traitsINS_9allocatorINS_11__hash_nodeINS_17__hash_value_typeIciEEPvEEEEE9constructB8ue170006IiJEvEEvRS7_PT_DpOT0_, symObjAddr: 0x2BFC, symBinAddr: 0x100006F10, symSize: 0x2C }
  - { offsetInCU: 0xFD59, offset: 0xFD59, size: 0x8, addend: 0x0, symName: __ZNSt3__19allocatorINS_11__hash_nodeINS_17__hash_value_typeIciEEPvEEE8allocateB8ue170006Em, symObjAddr: 0x2C28, symBinAddr: 0x100006F3C, symSize: 0x8C }
  - { offsetInCU: 0xFD96, offset: 0xFD96, size: 0x8, addend: 0x0, symName: __ZNSt3__116allocator_traitsINS_9allocatorINS_11__hash_nodeINS_17__hash_value_typeIciEEPvEEEEE8max_sizeB8ue170006IS7_vEEmRKS7_, symObjAddr: 0x2CB4, symBinAddr: 0x100006FC8, symSize: 0x24 }
  - { offsetInCU: 0xFDC4, offset: 0xFDC4, size: 0x8, addend: 0x0, symName: __ZNKSt3__19allocatorINS_11__hash_nodeINS_17__hash_value_typeIciEEPvEEE8max_sizeB8ue170006Ev, symObjAddr: 0x2D34, symBinAddr: 0x100007048, symSize: 0x18 }
  - { offsetInCU: 0xFDE9, offset: 0xFDE9, size: 0x8, addend: 0x0, symName: __ZNSt3__126__hash_map_node_destructorINS_9allocatorINS_11__hash_nodeINS_17__hash_value_typeIciEEPvEEEEEC2B8ue170006ERS7_, symObjAddr: 0x2D70, symBinAddr: 0x100007084, symSize: 0x28 }
  - { offsetInCU: 0xFE21, offset: 0xFE21, size: 0x8, addend: 0x0, symName: __ZNSt3__110unique_ptrINS_11__hash_nodeINS_17__hash_value_typeIciEEPvEENS_26__hash_map_node_destructorINS_9allocatorIS5_EEEEEC2B8ue170006ILb1EvEEPS5_NS_16__dependent_typeINS_27__unique_ptr_deleter_sfinaeIS9_EEXT_EE20__good_rval_ref_typeE, symObjAddr: 0x2D98, symBinAddr: 0x1000070AC, symSize: 0x5C }
  - { offsetInCU: 0xFE71, offset: 0xFE71, size: 0x8, addend: 0x0, symName: __ZNSt3__117__compressed_pairIPNS_11__hash_nodeINS_17__hash_value_typeIciEEPvEENS_26__hash_map_node_destructorINS_9allocatorIS5_EEEEEC1B8ue170006IRS6_SA_EEOT_OT0_, symObjAddr: 0x2DF4, symBinAddr: 0x100007108, symSize: 0x3C }
  - { offsetInCU: 0xFEC8, offset: 0xFEC8, size: 0x8, addend: 0x0, symName: __ZNSt3__117__compressed_pairIPNS_11__hash_nodeINS_17__hash_value_typeIciEEPvEENS_26__hash_map_node_destructorINS_9allocatorIS5_EEEEEC2B8ue170006IRS6_SA_EEOT_OT0_, symObjAddr: 0x2E30, symBinAddr: 0x100007144, symSize: 0x48 }
  - { offsetInCU: 0xFF1F, offset: 0xFF1F, size: 0x8, addend: 0x0, symName: __ZNSt3__122__compressed_pair_elemIPNS_11__hash_nodeINS_17__hash_value_typeIciEEPvEELi0ELb0EEC2B8ue170006IRS6_vEEOT_, symObjAddr: 0x2E78, symBinAddr: 0x10000718C, symSize: 0x24 }
  - { offsetInCU: 0xFF60, offset: 0xFF60, size: 0x8, addend: 0x0, symName: __ZNSt3__122__compressed_pair_elemINS_26__hash_map_node_destructorINS_9allocatorINS_11__hash_nodeINS_17__hash_value_typeIciEEPvEEEEEELi1ELb0EEC2B8ue170006IS9_vEEOT_, symObjAddr: 0x2E9C, symBinAddr: 0x1000071B0, symSize: 0x24 }
  - { offsetInCU: 0xFFA1, offset: 0xFFA1, size: 0x8, addend: 0x0, symName: __ZNSt3__19allocatorINS_11__hash_nodeINS_17__hash_value_typeIciEEPvEEE9constructB8ue170006IKcJRS8_EEEvPT_DpOT0_, symObjAddr: 0x2EC0, symBinAddr: 0x1000071D4, symSize: 0x28 }
  - { offsetInCU: 0xFFF6, offset: 0xFFF6, size: 0x8, addend: 0x0, symName: __ZNKSt3__117__compressed_pairIPNS_11__hash_nodeINS_17__hash_value_typeIciEEPvEENS_26__hash_map_node_destructorINS_9allocatorIS5_EEEEE5firstB8ue170006Ev, symObjAddr: 0x2EE8, symBinAddr: 0x1000071FC, symSize: 0x24 }
  - { offsetInCU: 0x1001B, offset: 0x1001B, size: 0x8, addend: 0x0, symName: __ZNKSt3__122__compressed_pair_elemIPNS_11__hash_nodeINS_17__hash_value_typeIciEEPvEELi0ELb0EE5__getB8ue170006Ev, symObjAddr: 0x2F0C, symBinAddr: 0x100007220, symSize: 0x14 }
  - { offsetInCU: 0x10040, offset: 0x10040, size: 0x8, addend: 0x0, symName: __ZNSt3__117__compressed_pairIPNS_11__hash_nodeINS_17__hash_value_typeIciEEPvEENS_26__hash_map_node_destructorINS_9allocatorIS5_EEEEE6secondB8ue170006Ev, symObjAddr: 0x2F20, symBinAddr: 0x100007234, symSize: 0x28 }
  - { offsetInCU: 0x10065, offset: 0x10065, size: 0x8, addend: 0x0, symName: __ZNSt3__122__compressed_pair_elemINS_26__hash_map_node_destructorINS_9allocatorINS_11__hash_nodeINS_17__hash_value_typeIciEEPvEEEEEELi1ELb0EE5__getB8ue170006Ev, symObjAddr: 0x2F48, symBinAddr: 0x10000725C, symSize: 0x14 }
  - { offsetInCU: 0x1008A, offset: 0x1008A, size: 0x8, addend: 0x0, symName: __ZNSt3__19allocatorINS_11__hash_nodeINS_17__hash_value_typeIciEEPvEEE9constructB8ue170006IiJEEEvPT_DpOT0_, symObjAddr: 0x2F5C, symBinAddr: 0x100007270, symSize: 0x1C }
  - { offsetInCU: 0x100CB, offset: 0x100CB, size: 0x8, addend: 0x0, symName: __ZNKSt3__122__unordered_map_hasherIcNS_17__hash_value_typeIciEENS_4hashIcEENS_8equal_toIcEELb1EEclB8ue170006ERKS2_, symObjAddr: 0x2F78, symBinAddr: 0x10000728C, symSize: 0x40 }
  - { offsetInCU: 0x100FE, offset: 0x100FE, size: 0x8, addend: 0x0, symName: __ZNSt3__112__hash_tableINS_17__hash_value_typeIciEENS_22__unordered_map_hasherIcS2_NS_4hashIcEENS_8equal_toIcEELb1EEENS_21__unordered_map_equalIcS2_S7_S5_Lb1EEENS_9allocatorIS2_EEE28__node_insert_unique_prepareB8ue170006EmRS2_, symObjAddr: 0x2FB8, symBinAddr: 0x1000072CC, symSize: 0x290 }
  - { offsetInCU: 0x1017E, offset: 0x1017E, size: 0x8, addend: 0x0, symName: __ZNSt3__112__hash_tableINS_17__hash_value_typeIciEENS_22__unordered_map_hasherIcS2_NS_4hashIcEENS_8equal_toIcEELb1EEENS_21__unordered_map_equalIcS2_S7_S5_Lb1EEENS_9allocatorIS2_EEE28__node_insert_unique_performB8ue170006EPNS_11__hash_nodeIS2_PvEE, symObjAddr: 0x3248, symBinAddr: 0x10000755C, symSize: 0x154 }
  - { offsetInCU: 0x101E1, offset: 0x101E1, size: 0x8, addend: 0x0, symName: __ZNSt3__116__hash_node_baseIPNS_11__hash_nodeINS_17__hash_value_typeIciEEPvEEE5__ptrB8ue170006Ev, symObjAddr: 0x339C, symBinAddr: 0x1000076B0, symSize: 0x24 }
  - { offsetInCU: 0x10206, offset: 0x10206, size: 0x8, addend: 0x0, symName: __ZNSt3__14pairINS_15__hash_iteratorIPNS_11__hash_nodeINS_17__hash_value_typeIciEEPvEEEEbEC1B8ue170006ERKS8_RKb, symObjAddr: 0x33C0, symBinAddr: 0x1000076D4, symSize: 0x3C }
  - { offsetInCU: 0x1024B, offset: 0x1024B, size: 0x8, addend: 0x0, symName: __ZNKSt3__121__unordered_map_equalIcNS_17__hash_value_typeIciEENS_8equal_toIcEENS_4hashIcEELb1EEclB8ue170006ERKS2_S9_, symObjAddr: 0x33FC, symBinAddr: 0x100007710, symSize: 0x54 }
  - { offsetInCU: 0x1028E, offset: 0x1028E, size: 0x8, addend: 0x0, symName: __ZNSt3__112__hash_tableINS_17__hash_value_typeIciEENS_22__unordered_map_hasherIcS2_NS_4hashIcEENS_8equal_toIcEELb1EEENS_21__unordered_map_equalIcS2_S7_S5_Lb1EEENS_9allocatorIS2_EEE4sizeB8ue170006Ev, symObjAddr: 0x3450, symBinAddr: 0x100007764, symSize: 0x28 }
  - { offsetInCU: 0x102B3, offset: 0x102B3, size: 0x8, addend: 0x0, symName: __ZNSt3__112__hash_tableINS_17__hash_value_typeIciEENS_22__unordered_map_hasherIcS2_NS_4hashIcEENS_8equal_toIcEELb1EEENS_21__unordered_map_equalIcS2_S7_S5_Lb1EEENS_9allocatorIS2_EEE15max_load_factorB8ue170006Ev, symObjAddr: 0x3478, symBinAddr: 0x10000778C, symSize: 0x28 }
  - { offsetInCU: 0x102D8, offset: 0x102D8, size: 0x8, addend: 0x0, symName: __ZNSt3__112__hash_tableINS_17__hash_value_typeIciEENS_22__unordered_map_hasherIcS2_NS_4hashIcEENS_8equal_toIcEELb1EEENS_21__unordered_map_equalIcS2_S7_S5_Lb1EEENS_9allocatorIS2_EEE15__rehash_uniqueB8ue170006Em, symObjAddr: 0x34A0, symBinAddr: 0x1000077B4, symSize: 0x2C }
  - { offsetInCU: 0x1030B, offset: 0x1030B, size: 0x8, addend: 0x0, symName: __Z4ceilB8ue170006f, symObjAddr: 0x3548, symBinAddr: 0x10000785C, symSize: 0x18 }
  - { offsetInCU: 0x1033A, offset: 0x1033A, size: 0x8, addend: 0x0, symName: __ZNSt3__117__compressed_pairImNS_22__unordered_map_hasherIcNS_17__hash_value_typeIciEENS_4hashIcEENS_8equal_toIcEELb1EEEE5firstB8ue170006Ev, symObjAddr: 0x3560, symBinAddr: 0x100007874, symSize: 0x24 }
  - { offsetInCU: 0x1035F, offset: 0x1035F, size: 0x8, addend: 0x0, symName: __ZNSt3__117__compressed_pairIfNS_21__unordered_map_equalIcNS_17__hash_value_typeIciEENS_8equal_toIcEENS_4hashIcEELb1EEEE5firstB8ue170006Ev, symObjAddr: 0x3584, symBinAddr: 0x100007898, symSize: 0x24 }
  - { offsetInCU: 0x10384, offset: 0x10384, size: 0x8, addend: 0x0, symName: __ZNSt3__122__compressed_pair_elemIfLi0ELb0EE5__getB8ue170006Ev, symObjAddr: 0x35A8, symBinAddr: 0x1000078BC, symSize: 0x14 }
  - { offsetInCU: 0x103A8, offset: 0x103A8, size: 0x8, addend: 0x0, symName: __ZNSt3__112__hash_tableINS_17__hash_value_typeIciEENS_22__unordered_map_hasherIcS2_NS_4hashIcEENS_8equal_toIcEELb1EEENS_21__unordered_map_equalIcS2_S7_S5_Lb1EEENS_9allocatorIS2_EEE8__rehashILb1EEEvm, symObjAddr: 0x35BC, symBinAddr: 0x1000078D0, symSize: 0x1A8 }
  - { offsetInCU: 0x103F6, offset: 0x103F6, size: 0x8, addend: 0x0, symName: __ZNSt3__112__hash_tableINS_17__hash_value_typeIciEENS_22__unordered_map_hasherIcS2_NS_4hashIcEENS_8equal_toIcEELb1EEENS_21__unordered_map_equalIcS2_S7_S5_Lb1EEENS_9allocatorIS2_EEE11__do_rehashILb1EEEvm, symObjAddr: 0x3764, symBinAddr: 0x100007A78, symSize: 0x288 }
  - { offsetInCU: 0x104DC, offset: 0x104DC, size: 0x8, addend: 0x0, symName: __ZNSt3__110unique_ptrIA_PNS_16__hash_node_baseIPNS_11__hash_nodeINS_17__hash_value_typeIciEEPvEEEENS_25__bucket_list_deallocatorINS_9allocatorIS9_EEEEE11get_deleterB8ue170006Ev, symObjAddr: 0x3A58, symBinAddr: 0x100007D6C, symSize: 0x24 }
  - { offsetInCU: 0x10501, offset: 0x10501, size: 0x8, addend: 0x0, symName: __ZNSt3__110unique_ptrIA_PNS_16__hash_node_baseIPNS_11__hash_nodeINS_17__hash_value_typeIciEEPvEEEENS_25__bucket_list_deallocatorINS_9allocatorIS9_EEEEE5resetB8ue170006IPS9_EENS_9enable_ifIXsr28_CheckArrayPointerConversionIT_EE5valueEvE4typeESJ_, symObjAddr: 0x3A7C, symBinAddr: 0x100007D90, symSize: 0x78 }
  - { offsetInCU: 0x1054D, offset: 0x1054D, size: 0x8, addend: 0x0, symName: __ZNSt3__116allocator_traitsINS_9allocatorIPNS_16__hash_node_baseIPNS_11__hash_nodeINS_17__hash_value_typeIciEEPvEEEEEEE8allocateB8ue170006ERSB_m, symObjAddr: 0x3AF4, symBinAddr: 0x100007E08, symSize: 0x2C }
  - { offsetInCU: 0x10580, offset: 0x10580, size: 0x8, addend: 0x0, symName: __ZNSt3__19allocatorIPNS_16__hash_node_baseIPNS_11__hash_nodeINS_17__hash_value_typeIciEEPvEEEEE8allocateB8ue170006Em, symObjAddr: 0x3B20, symBinAddr: 0x100007E34, symSize: 0x84 }
  - { offsetInCU: 0x105BD, offset: 0x105BD, size: 0x8, addend: 0x0, symName: __ZNSt3__116allocator_traitsINS_9allocatorIPNS_16__hash_node_baseIPNS_11__hash_nodeINS_17__hash_value_typeIciEEPvEEEEEEE8max_sizeB8ue170006ISB_vEEmRKSB_, symObjAddr: 0x3BA4, symBinAddr: 0x100007EB8, symSize: 0x24 }
  - { offsetInCU: 0x105EB, offset: 0x105EB, size: 0x8, addend: 0x0, symName: __ZNKSt3__19allocatorIPNS_16__hash_node_baseIPNS_11__hash_nodeINS_17__hash_value_typeIciEEPvEEEEE8max_sizeB8ue170006Ev, symObjAddr: 0x3BC8, symBinAddr: 0x100007EDC, symSize: 0x14 }
  - { offsetInCU: 0x1061A, offset: 0x1061A, size: 0x8, addend: 0x0, symName: __ZNKSt3__16__lessIvvEclB8ue170006ImmEEbRKT_RKT0_, symObjAddr: 0x3C4C, symBinAddr: 0x100007F60, symSize: 0x34 }
  - { offsetInCU: 0x1066D, offset: 0x1066D, size: 0x8, addend: 0x0, symName: __ZNSt3__14pairINS_15__hash_iteratorIPNS_11__hash_nodeINS_17__hash_value_typeIciEEPvEEEEbEC2B8ue170006ERKS8_RKb, symObjAddr: 0x3C80, symBinAddr: 0x100007F94, symSize: 0x38 }
  - { offsetInCU: 0x106B2, offset: 0x106B2, size: 0x8, addend: 0x0, symName: __ZNSt3__14pairINS_19__hash_map_iteratorINS_15__hash_iteratorIPNS_11__hash_nodeINS_17__hash_value_typeIciEEPvEEEEEEbEC2B8ue170006IS9_bEERKNS0_IT_T0_EE, symObjAddr: 0x3CB8, symBinAddr: 0x100007FCC, symSize: 0x50 }
  - { offsetInCU: 0x106FB, offset: 0x106FB, size: 0x8, addend: 0x0, symName: __ZNSt3__117__compressed_pairIPNS_11__hash_nodeINS_17__hash_value_typeIciEEPvEENS_26__hash_map_node_destructorINS_9allocatorIS5_EEEEE5firstB8ue170006Ev, symObjAddr: 0x3D08, symBinAddr: 0x10000801C, symSize: 0x24 }
  - { offsetInCU: 0x10720, offset: 0x10720, size: 0x8, addend: 0x0, symName: __ZNSt3__122__compressed_pair_elemIPNS_11__hash_nodeINS_17__hash_value_typeIciEEPvEELi0ELb0EE5__getB8ue170006Ev, symObjAddr: 0x3D2C, symBinAddr: 0x100008040, symSize: 0x14 }
  - { offsetInCU: 0x10745, offset: 0x10745, size: 0x8, addend: 0x0, symName: __ZNSt3__110unique_ptrINS_11__hash_nodeINS_17__hash_value_typeIciEEPvEENS_26__hash_map_node_destructorINS_9allocatorIS5_EEEEED2B8ue170006Ev, symObjAddr: 0x3D40, symBinAddr: 0x100008054, symSize: 0x30 }
  - { offsetInCU: 0x1076E, offset: 0x1076E, size: 0x8, addend: 0x0, symName: __ZNSt3__110unique_ptrINS_11__hash_nodeINS_17__hash_value_typeIciEEPvEENS_26__hash_map_node_destructorINS_9allocatorIS5_EEEEE5resetB8ue170006EPS5_, symObjAddr: 0x3D70, symBinAddr: 0x100008084, symSize: 0x78 }
  - { offsetInCU: 0x107B1, offset: 0x107B1, size: 0x8, addend: 0x0, symName: __ZNSt3__126__hash_map_node_destructorINS_9allocatorINS_11__hash_nodeINS_17__hash_value_typeIciEEPvEEEEEclB8ue170006EPS6_, symObjAddr: 0x3DE8, symBinAddr: 0x1000080FC, symSize: 0xE4 }
  - { offsetInCU: 0x107E5, offset: 0x107E5, size: 0x8, addend: 0x0, symName: __ZNSt3__116allocator_traitsINS_9allocatorINS_11__hash_nodeINS_17__hash_value_typeIciEEPvEEEEE7destroyB8ue170006IivvEEvRS7_PT_, symObjAddr: 0x3ECC, symBinAddr: 0x1000081E0, symSize: 0x14 }
  - { offsetInCU: 0x10820, offset: 0x10820, size: 0x8, addend: 0x0, symName: __ZNSt3__116allocator_traitsINS_9allocatorINS_11__hash_nodeINS_17__hash_value_typeIciEEPvEEEEE7destroyB8ue170006IKcvvEEvRS7_PT_, symObjAddr: 0x3EE0, symBinAddr: 0x1000081F4, symSize: 0x14 }
  - { offsetInCU: 0x1085B, offset: 0x1085B, size: 0x8, addend: 0x0, symName: __ZNSt3__112basic_stringIcNS_11char_traitsIcEENS_9allocatorIcEEEC2B8ue170006Ev, symObjAddr: 0x3EF4, symBinAddr: 0x100008208, symSize: 0x3C }
  - { offsetInCU: 0x10884, offset: 0x10884, size: 0x8, addend: 0x0, symName: __ZNSt3__117__compressed_pairINS_12basic_stringIcNS_11char_traitsIcEENS_9allocatorIcEEE5__repES5_EC1B8ue170006INS_18__default_init_tagESA_EEOT_OT0_, symObjAddr: 0x3F30, symBinAddr: 0x100008244, symSize: 0x3C }
  - { offsetInCU: 0x108DB, offset: 0x108DB, size: 0x8, addend: 0x0, symName: __ZNSt3__112basic_stringIcNS_11char_traitsIcEENS_9allocatorIcEEE14__default_initB8ue170006Ev, symObjAddr: 0x3F6C, symBinAddr: 0x100008280, symSize: 0xB0 }
  - { offsetInCU: 0x1092D, offset: 0x1092D, size: 0x8, addend: 0x0, symName: __ZNSt3__117__compressed_pairINS_12basic_stringIcNS_11char_traitsIcEENS_9allocatorIcEEE5__repES5_EC2B8ue170006INS_18__default_init_tagESA_EEOT_OT0_, symObjAddr: 0x401C, symBinAddr: 0x100008330, symSize: 0x3C }
  - { offsetInCU: 0x10984, offset: 0x10984, size: 0x8, addend: 0x0, symName: __ZNSt3__122__compressed_pair_elemINS_12basic_stringIcNS_11char_traitsIcEENS_9allocatorIcEEE5__repELi0ELb0EEC2B8ue170006ENS_18__default_init_tagE, symObjAddr: 0x4058, symBinAddr: 0x10000836C, symSize: 0x14 }
  - { offsetInCU: 0x109B8, offset: 0x109B8, size: 0x8, addend: 0x0, symName: __ZNSt3__122__compressed_pair_elemINS_9allocatorIcEELi1ELb1EEC2B8ue170006ENS_18__default_init_tagE, symObjAddr: 0x406C, symBinAddr: 0x100008380, symSize: 0x2C }
  - { offsetInCU: 0x109EC, offset: 0x109EC, size: 0x8, addend: 0x0, symName: __ZNSt3__19allocatorIcEC2B8ue170006Ev, symObjAddr: 0x4098, symBinAddr: 0x1000083AC, symSize: 0x2C }
  - { offsetInCU: 0x10A15, offset: 0x10A15, size: 0x8, addend: 0x0, symName: __ZNSt3__116__non_trivial_ifILb1ENS_9allocatorIcEEEC2B8ue170006Ev, symObjAddr: 0x40C4, symBinAddr: 0x1000083D8, symSize: 0x14 }
  - { offsetInCU: 0x10A3E, offset: 0x10A3E, size: 0x8, addend: 0x0, symName: __ZNSt3__112basic_stringIcNS_11char_traitsIcEENS_9allocatorIcEEE11__recommendB8ue170006Em, symObjAddr: 0x40D8, symBinAddr: 0x1000083EC, symSize: 0x9C }
  - { offsetInCU: 0x10A71, offset: 0x10A71, size: 0x8, addend: 0x0, symName: __ZNSt3__116allocator_traitsINS_9allocatorIcEEE8allocateB8ue170006ERS2_m, symObjAddr: 0x4174, symBinAddr: 0x100008488, symSize: 0x2C }
  - { offsetInCU: 0x10AA4, offset: 0x10AA4, size: 0x8, addend: 0x0, symName: __ZNSt3__112basic_stringIcNS_11char_traitsIcEENS_9allocatorIcEEE7__allocB8ue170006Ev, symObjAddr: 0x41A0, symBinAddr: 0x1000084B4, symSize: 0x24 }
  - { offsetInCU: 0x10AC9, offset: 0x10AC9, size: 0x8, addend: 0x0, symName: __ZNSt3__112basic_stringIcNS_11char_traitsIcEENS_9allocatorIcEEE16__begin_lifetimeB8ue170006EPcm, symObjAddr: 0x41C4, symBinAddr: 0x1000084D8, symSize: 0x14 }
  - { offsetInCU: 0x10AFC, offset: 0x10AFC, size: 0x8, addend: 0x0, symName: __ZNSt3__112basic_stringIcNS_11char_traitsIcEENS_9allocatorIcEEE18__set_long_pointerB8ue170006EPc, symObjAddr: 0x41D8, symBinAddr: 0x1000084EC, symSize: 0x38 }
  - { offsetInCU: 0x10B30, offset: 0x10B30, size: 0x8, addend: 0x0, symName: __ZNSt3__112basic_stringIcNS_11char_traitsIcEENS_9allocatorIcEEE14__set_long_capB8ue170006Em, symObjAddr: 0x4210, symBinAddr: 0x100008524, symSize: 0x70 }
  - { offsetInCU: 0x10B64, offset: 0x10B64, size: 0x8, addend: 0x0, symName: __ZNSt3__112basic_stringIcNS_11char_traitsIcEENS_9allocatorIcEEE15__set_long_sizeB8ue170006Em, symObjAddr: 0x4280, symBinAddr: 0x100008594, symSize: 0x38 }
  - { offsetInCU: 0x10B98, offset: 0x10B98, size: 0x8, addend: 0x0, symName: __ZNSt3__112basic_stringIcNS_11char_traitsIcEENS_9allocatorIcEEE10__align_itB8ue170006ILm16EEEmm, symObjAddr: 0x42B8, symBinAddr: 0x1000085CC, symSize: 0x1C }
  - { offsetInCU: 0x10BC6, offset: 0x10BC6, size: 0x8, addend: 0x0, symName: __ZNSt3__19allocatorIcE8allocateB8ue170006Em, symObjAddr: 0x42D4, symBinAddr: 0x1000085E8, symSize: 0x84 }
  - { offsetInCU: 0x10C03, offset: 0x10C03, size: 0x8, addend: 0x0, symName: __ZNSt3__116allocator_traitsINS_9allocatorIcEEE8max_sizeB8ue170006IS2_vEEmRKS2_, symObjAddr: 0x4358, symBinAddr: 0x10000866C, symSize: 0x24 }
  - { offsetInCU: 0x10C31, offset: 0x10C31, size: 0x8, addend: 0x0, symName: __ZNKSt3__19allocatorIcE8max_sizeB8ue170006Ev, symObjAddr: 0x437C, symBinAddr: 0x100008690, symSize: 0x14 }
  - { offsetInCU: 0x10C56, offset: 0x10C56, size: 0x8, addend: 0x0, symName: __ZNSt3__117__compressed_pairINS_12basic_stringIcNS_11char_traitsIcEENS_9allocatorIcEEE5__repES5_E6secondB8ue170006Ev, symObjAddr: 0x4390, symBinAddr: 0x1000086A4, symSize: 0x24 }
  - { offsetInCU: 0x10C7B, offset: 0x10C7B, size: 0x8, addend: 0x0, symName: __ZNSt3__122__compressed_pair_elemINS_9allocatorIcEELi1ELb1EE5__getB8ue170006Ev, symObjAddr: 0x43B4, symBinAddr: 0x1000086C8, symSize: 0x14 }
  - { offsetInCU: 0x10CA0, offset: 0x10CA0, size: 0x8, addend: 0x0, symName: __ZNSt3__16vectorINS_12basic_stringIcNS_11char_traitsIcEENS_9allocatorIcEEEENS4_IS6_EEE11__make_iterB8ue170006EPS6_, symObjAddr: 0x43C8, symBinAddr: 0x1000086DC, symSize: 0x30 }
  - { offsetInCU: 0x10CD4, offset: 0x10CD4, size: 0x8, addend: 0x0, symName: __ZNSt3__111__wrap_iterIPNS_12basic_stringIcNS_11char_traitsIcEENS_9allocatorIcEEEEEC1B8ue170006ES7_, symObjAddr: 0x43F8, symBinAddr: 0x10000870C, symSize: 0x34 }
  - { offsetInCU: 0x10D0B, offset: 0x10D0B, size: 0x8, addend: 0x0, symName: __ZNSt3__111__wrap_iterIPNS_12basic_stringIcNS_11char_traitsIcEENS_9allocatorIcEEEEEC2B8ue170006ES7_, symObjAddr: 0x442C, symBinAddr: 0x100008740, symSize: 0x20 }
  - { offsetInCU: 0x10D42, offset: 0x10D42, size: 0x8, addend: 0x0, symName: __ZNKSt3__111__wrap_iterIPNS_12basic_stringIcNS_11char_traitsIcEENS_9allocatorIcEEEEE4baseB8ue170006Ev, symObjAddr: 0x4494, symBinAddr: 0x1000087A8, symSize: 0x18 }
  - { offsetInCU: 0x10D67, offset: 0x10D67, size: 0x8, addend: 0x0, symName: __ZNSt3__112basic_stringIcNS_11char_traitsIcEENS_9allocatorIcEEE15__make_iteratorB8ue170006EPc, symObjAddr: 0x44AC, symBinAddr: 0x1000087C0, symSize: 0x30 }
  - { offsetInCU: 0x10D9B, offset: 0x10D9B, size: 0x8, addend: 0x0, symName: __ZNSt3__111__wrap_iterIPcEC1B8ue170006ES1_, symObjAddr: 0x44DC, symBinAddr: 0x1000087F0, symSize: 0x34 }
  - { offsetInCU: 0x10DD2, offset: 0x10DD2, size: 0x8, addend: 0x0, symName: __ZNSt3__111__wrap_iterIPcEC2B8ue170006ES1_, symObjAddr: 0x4510, symBinAddr: 0x100008824, symSize: 0x20 }
  - { offsetInCU: 0x10E09, offset: 0x10E09, size: 0x8, addend: 0x0, symName: __ZNKSt3__111__wrap_iterIPcE4baseB8ue170006Ev, symObjAddr: 0x4578, symBinAddr: 0x10000888C, symSize: 0x18 }
  - { offsetInCU: 0x10E2D, offset: 0x10E2D, size: 0x8, addend: 0x0, symName: __ZNSt3__112__hash_tableINS_17__hash_value_typeIciEENS_22__unordered_map_hasherIcS2_NS_4hashIcEENS_8equal_toIcEELb1EEENS_21__unordered_map_equalIcS2_S7_S5_Lb1EEENS_9allocatorIS2_EEE5beginEv, symObjAddr: 0x4590, symBinAddr: 0x1000088A4, symSize: 0x38 }
  - { offsetInCU: 0x10E54, offset: 0x10E54, size: 0x8, addend: 0x0, symName: __ZNSt3__119__hash_map_iteratorINS_15__hash_iteratorIPNS_11__hash_nodeINS_17__hash_value_typeIciEEPvEEEEEppB8ue170006Ev, symObjAddr: 0x462C, symBinAddr: 0x100008940, symSize: 0x2C }
  - { offsetInCU: 0x10E79, offset: 0x10E79, size: 0x8, addend: 0x0, symName: __ZNSt3__115__hash_iteratorIPNS_11__hash_nodeINS_17__hash_value_typeIciEEPvEEEppB8ue170006Ev, symObjAddr: 0x4658, symBinAddr: 0x10000896C, symSize: 0x20 }
  - { offsetInCU: 0x10E9E, offset: 0x10E9E, size: 0x8, addend: 0x0, symName: __ZNSt3__114pointer_traitsIPNS_4pairIKciEEE10pointer_toB8ue170006ERS3_, symObjAddr: 0x4678, symBinAddr: 0x10000898C, symSize: 0x14 }
  - { offsetInCU: 0x10EC1, offset: 0x10EC1, size: 0x8, addend: 0x0, symName: __ZNKSt3__115__hash_iteratorIPNS_11__hash_nodeINS_17__hash_value_typeIciEEPvEEEptB8ue170006Ev, symObjAddr: 0x468C, symBinAddr: 0x1000089A0, symSize: 0x30 }
  - { offsetInCU: 0x10EE6, offset: 0x10EE6, size: 0x8, addend: 0x0, symName: __ZNSt3__114pointer_traitsIPNS_17__hash_value_typeIciEEE10pointer_toB8ue170006ERS2_, symObjAddr: 0x46BC, symBinAddr: 0x1000089D0, symSize: 0x14 }
  - { offsetInCU: 0x10F08, offset: 0x10F08, size: 0x8, addend: 0x0, symName: __ZNKSt3__112__hash_tableINS_17__hash_value_typeIciEENS_22__unordered_map_hasherIcS2_NS_4hashIcEENS_8equal_toIcEELb1EEENS_21__unordered_map_equalIcS2_S7_S5_Lb1EEENS_9allocatorIS2_EEE14__count_uniqueIcEEmRKT_, symObjAddr: 0x46D0, symBinAddr: 0x1000089E4, symSize: 0x64 }
  - { offsetInCU: 0x10F46, offset: 0x10F46, size: 0x8, addend: 0x0, symName: __ZNKSt3__112__hash_tableINS_17__hash_value_typeIciEENS_22__unordered_map_hasherIcS2_NS_4hashIcEENS_8equal_toIcEELb1EEENS_21__unordered_map_equalIcS2_S7_S5_Lb1EEENS_9allocatorIS2_EEE4findIcEENS_21__hash_const_iteratorIPNS_11__hash_nodeIS2_PvEEEERKT_, symObjAddr: 0x4768, symBinAddr: 0x100008A7C, symSize: 0x1B8 }
  - { offsetInCU: 0x10FCF, offset: 0x10FCF, size: 0x8, addend: 0x0, symName: __ZNKSt3__112__hash_tableINS_17__hash_value_typeIciEENS_22__unordered_map_hasherIcS2_NS_4hashIcEENS_8equal_toIcEELb1EEENS_21__unordered_map_equalIcS2_S7_S5_Lb1EEENS_9allocatorIS2_EEE3endEv, symObjAddr: 0x4920, symBinAddr: 0x100008C34, symSize: 0x2C }
  - { offsetInCU: 0x10FF6, offset: 0x10FF6, size: 0x8, addend: 0x0, symName: __ZNKSt3__112__hash_tableINS_17__hash_value_typeIciEENS_22__unordered_map_hasherIcS2_NS_4hashIcEENS_8equal_toIcEELb1EEENS_21__unordered_map_equalIcS2_S7_S5_Lb1EEENS_9allocatorIS2_EEE13hash_functionB8ue170006Ev, symObjAddr: 0x497C, symBinAddr: 0x100008C90, symSize: 0x28 }
  - { offsetInCU: 0x1101B, offset: 0x1101B, size: 0x8, addend: 0x0, symName: __ZNKSt3__112__hash_tableINS_17__hash_value_typeIciEENS_22__unordered_map_hasherIcS2_NS_4hashIcEENS_8equal_toIcEELb1EEENS_21__unordered_map_equalIcS2_S7_S5_Lb1EEENS_9allocatorIS2_EEE6key_eqB8ue170006Ev, symObjAddr: 0x49A4, symBinAddr: 0x100008CB8, symSize: 0x28 }
  - { offsetInCU: 0x11040, offset: 0x11040, size: 0x8, addend: 0x0, symName: __ZNSt3__121__hash_const_iteratorIPNS_11__hash_nodeINS_17__hash_value_typeIciEEPvEEEC1B8ue170006EPNS_16__hash_node_baseIS6_EE, symObjAddr: 0x49CC, symBinAddr: 0x100008CE0, symSize: 0x34 }
  - { offsetInCU: 0x11078, offset: 0x11078, size: 0x8, addend: 0x0, symName: __ZNKSt3__117__compressed_pairImNS_22__unordered_map_hasherIcNS_17__hash_value_typeIciEENS_4hashIcEENS_8equal_toIcEELb1EEEE6secondB8ue170006Ev, symObjAddr: 0x4A00, symBinAddr: 0x100008D14, symSize: 0x24 }
  - { offsetInCU: 0x1109D, offset: 0x1109D, size: 0x8, addend: 0x0, symName: __ZNKSt3__122__compressed_pair_elemINS_22__unordered_map_hasherIcNS_17__hash_value_typeIciEENS_4hashIcEENS_8equal_toIcEELb1EEELi1ELb1EE5__getB8ue170006Ev, symObjAddr: 0x4A24, symBinAddr: 0x100008D38, symSize: 0x14 }
  - { offsetInCU: 0x110C2, offset: 0x110C2, size: 0x8, addend: 0x0, symName: __ZNKSt3__117__compressed_pairIfNS_21__unordered_map_equalIcNS_17__hash_value_typeIciEENS_8equal_toIcEENS_4hashIcEELb1EEEE6secondB8ue170006Ev, symObjAddr: 0x4A38, symBinAddr: 0x100008D4C, symSize: 0x24 }
  - { offsetInCU: 0x110E7, offset: 0x110E7, size: 0x8, addend: 0x0, symName: __ZNKSt3__122__compressed_pair_elemINS_21__unordered_map_equalIcNS_17__hash_value_typeIciEENS_8equal_toIcEENS_4hashIcEELb1EEELi1ELb1EE5__getB8ue170006Ev, symObjAddr: 0x4A5C, symBinAddr: 0x100008D70, symSize: 0x14 }
  - { offsetInCU: 0x1110C, offset: 0x1110C, size: 0x8, addend: 0x0, symName: __ZNSt3__121__hash_const_iteratorIPNS_11__hash_nodeINS_17__hash_value_typeIciEEPvEEEC2B8ue170006EPNS_16__hash_node_baseIS6_EE, symObjAddr: 0x4A70, symBinAddr: 0x100008D84, symSize: 0x20 }
  - { offsetInCU: 0x11144, offset: 0x11144, size: 0x8, addend: 0x0, symName: __ZNSt3__112basic_stringIcNS_11char_traitsIcEENS_9allocatorIcEEEC2B8ue170006ILi0EEEPKc, symObjAddr: 0x4A90, symBinAddr: 0x100008DA4, symSize: 0x58 }
  - { offsetInCU: 0x11182, offset: 0x11182, size: 0x8, addend: 0x0, symName: __ZNSt3__111char_traitsIcE6lengthB8ue170006EPKc, symObjAddr: 0x4AE8, symBinAddr: 0x100008DFC, symSize: 0x48 }
  - { offsetInCU: 0x111A5, offset: 0x111A5, size: 0x8, addend: 0x0, symName: __ZNSt3__16vectorINS_12basic_stringIcNS_11char_traitsIcEENS_9allocatorIcEEEENS4_IS6_EEEC2B8ue170006Ev, symObjAddr: 0x4B54, symBinAddr: 0x100008E68, symSize: 0x44 }
  - { offsetInCU: 0x111D3, offset: 0x111D3, size: 0x8, addend: 0x0, symName: __ZNSt3__117__compressed_pairIPNS_12basic_stringIcNS_11char_traitsIcEENS_9allocatorIcEEEENS4_IS6_EEEC1B8ue170006IDnNS_18__default_init_tagEEEOT_OT0_, symObjAddr: 0x4B98, symBinAddr: 0x100008EAC, symSize: 0x3C }
  - { offsetInCU: 0x1122A, offset: 0x1122A, size: 0x8, addend: 0x0, symName: __ZNSt3__117__compressed_pairIPNS_12basic_stringIcNS_11char_traitsIcEENS_9allocatorIcEEEENS4_IS6_EEEC2B8ue170006IDnNS_18__default_init_tagEEEOT_OT0_, symObjAddr: 0x4BD4, symBinAddr: 0x100008EE8, symSize: 0x40 }
  - { offsetInCU: 0x11281, offset: 0x11281, size: 0x8, addend: 0x0, symName: __ZNSt3__122__compressed_pair_elemIPNS_12basic_stringIcNS_11char_traitsIcEENS_9allocatorIcEEEELi0ELb0EEC2B8ue170006IDnvEEOT_, symObjAddr: 0x4C14, symBinAddr: 0x100008F28, symSize: 0x1C }
  - { offsetInCU: 0x112C2, offset: 0x112C2, size: 0x8, addend: 0x0, symName: __ZNSt3__122__compressed_pair_elemINS_9allocatorINS_12basic_stringIcNS_11char_traitsIcEENS1_IcEEEEEELi1ELb1EEC2B8ue170006ENS_18__default_init_tagE, symObjAddr: 0x4C30, symBinAddr: 0x100008F44, symSize: 0x2C }
  - { offsetInCU: 0x112F6, offset: 0x112F6, size: 0x8, addend: 0x0, symName: __ZNSt3__19allocatorINS_12basic_stringIcNS_11char_traitsIcEENS0_IcEEEEEC2B8ue170006Ev, symObjAddr: 0x4C5C, symBinAddr: 0x100008F70, symSize: 0x2C }
  - { offsetInCU: 0x1131F, offset: 0x1131F, size: 0x8, addend: 0x0, symName: __ZNSt3__116__non_trivial_ifILb1ENS_9allocatorINS_12basic_stringIcNS_11char_traitsIcEENS1_IcEEEEEEEC2B8ue170006Ev, symObjAddr: 0x4C88, symBinAddr: 0x100008F9C, symSize: 0x14 }
  - { offsetInCU: 0x11348, offset: 0x11348, size: 0x8, addend: 0x0, symName: __ZNSt3__16vectorINS_12basic_stringIcNS_11char_traitsIcEENS_9allocatorIcEEEENS4_IS6_EEED2B8ue170006Ev, symObjAddr: 0x4C9C, symBinAddr: 0x100008FB0, symSize: 0x3C }
  - { offsetInCU: 0x11371, offset: 0x11371, size: 0x8, addend: 0x0, symName: __ZNSt3__16vectorINS_12basic_stringIcNS_11char_traitsIcEENS_9allocatorIcEEEENS4_IS6_EEE16__destroy_vectorC1B8ue170006ERS8_, symObjAddr: 0x4CD8, symBinAddr: 0x100008FEC, symSize: 0x34 }
  - { offsetInCU: 0x113A9, offset: 0x113A9, size: 0x8, addend: 0x0, symName: __ZNSt3__16vectorINS_12basic_stringIcNS_11char_traitsIcEENS_9allocatorIcEEEENS4_IS6_EEE16__destroy_vectorclB8ue170006Ev, symObjAddr: 0x4D0C, symBinAddr: 0x100009020, symSize: 0x90 }
  - { offsetInCU: 0x113CE, offset: 0x113CE, size: 0x8, addend: 0x0, symName: __ZNSt3__16vectorINS_12basic_stringIcNS_11char_traitsIcEENS_9allocatorIcEEEENS4_IS6_EEE16__destroy_vectorC2B8ue170006ERS8_, symObjAddr: 0x4D9C, symBinAddr: 0x1000090B0, symSize: 0x20 }
  - { offsetInCU: 0x11406, offset: 0x11406, size: 0x8, addend: 0x0, symName: __ZNSt3__16vectorINS_12basic_stringIcNS_11char_traitsIcEENS_9allocatorIcEEEENS4_IS6_EEE7__clearB8ue170006Ev, symObjAddr: 0x4DBC, symBinAddr: 0x1000090D0, symSize: 0x28 }
  - { offsetInCU: 0x1142B, offset: 0x1142B, size: 0x8, addend: 0x0, symName: __ZNKSt3__16vectorINS_12basic_stringIcNS_11char_traitsIcEENS_9allocatorIcEEEENS4_IS6_EEE17__annotate_deleteB8ue170006Ev, symObjAddr: 0x4DE4, symBinAddr: 0x1000090F8, symSize: 0xD4 }
  - { offsetInCU: 0x11450, offset: 0x11450, size: 0x8, addend: 0x0, symName: __ZNSt3__116allocator_traitsINS_9allocatorINS_12basic_stringIcNS_11char_traitsIcEENS1_IcEEEEEEE10deallocateB8ue170006ERS7_PS6_m, symObjAddr: 0x4EB8, symBinAddr: 0x1000091CC, symSize: 0x34 }
  - { offsetInCU: 0x11492, offset: 0x11492, size: 0x8, addend: 0x0, symName: __ZNSt3__16vectorINS_12basic_stringIcNS_11char_traitsIcEENS_9allocatorIcEEEENS4_IS6_EEE7__allocB8ue170006Ev, symObjAddr: 0x4EEC, symBinAddr: 0x100009200, symSize: 0x28 }
  - { offsetInCU: 0x114B7, offset: 0x114B7, size: 0x8, addend: 0x0, symName: __ZNKSt3__16vectorINS_12basic_stringIcNS_11char_traitsIcEENS_9allocatorIcEEEENS4_IS6_EEE8capacityB8ue170006Ev, symObjAddr: 0x4F14, symBinAddr: 0x100009228, symSize: 0x40 }
  - { offsetInCU: 0x114DC, offset: 0x114DC, size: 0x8, addend: 0x0, symName: __ZNSt3__16vectorINS_12basic_stringIcNS_11char_traitsIcEENS_9allocatorIcEEEENS4_IS6_EEE22__base_destruct_at_endB8ue170006EPS6_, symObjAddr: 0x4F54, symBinAddr: 0x100009268, symSize: 0xA0 }
  - { offsetInCU: 0x1151F, offset: 0x1151F, size: 0x8, addend: 0x0, symName: __ZNSt3__116allocator_traitsINS_9allocatorINS_12basic_stringIcNS_11char_traitsIcEENS1_IcEEEEEEE7destroyB8ue170006IS6_vEEvRS7_PT_, symObjAddr: 0x4FF4, symBinAddr: 0x100009308, symSize: 0x2C }
  - { offsetInCU: 0x1155C, offset: 0x1155C, size: 0x8, addend: 0x0, symName: __ZNSt3__19allocatorINS_12basic_stringIcNS_11char_traitsIcEENS0_IcEEEEE7destroyB8ue170006EPS5_, symObjAddr: 0x5034, symBinAddr: 0x100009348, symSize: 0x28 }
  - { offsetInCU: 0x1158F, offset: 0x1158F, size: 0x8, addend: 0x0, symName: __ZNKSt3__16vectorINS_12basic_stringIcNS_11char_traitsIcEENS_9allocatorIcEEEENS4_IS6_EEE31__annotate_contiguous_containerB8ue170006EPKvSA_SA_SA_, symObjAddr: 0x505C, symBinAddr: 0x100009370, symSize: 0x20 }
  - { offsetInCU: 0x115E4, offset: 0x115E4, size: 0x8, addend: 0x0, symName: __ZNKSt3__16vectorINS_12basic_stringIcNS_11char_traitsIcEENS_9allocatorIcEEEENS4_IS6_EEE4dataB8ue170006Ev, symObjAddr: 0x507C, symBinAddr: 0x100009390, symSize: 0x28 }
  - { offsetInCU: 0x11609, offset: 0x11609, size: 0x8, addend: 0x0, symName: __ZNKSt3__16vectorINS_12basic_stringIcNS_11char_traitsIcEENS_9allocatorIcEEEENS4_IS6_EEE4sizeB8ue170006Ev, symObjAddr: 0x50A4, symBinAddr: 0x1000093B8, symSize: 0x28 }
  - { offsetInCU: 0x1162E, offset: 0x1162E, size: 0x8, addend: 0x0, symName: __ZNSt3__19allocatorINS_12basic_stringIcNS_11char_traitsIcEENS0_IcEEEEE10deallocateB8ue170006EPS5_m, symObjAddr: 0x50CC, symBinAddr: 0x1000093E0, symSize: 0x74 }
  - { offsetInCU: 0x1166F, offset: 0x1166F, size: 0x8, addend: 0x0, symName: __ZNSt3__117__compressed_pairIPNS_12basic_stringIcNS_11char_traitsIcEENS_9allocatorIcEEEENS4_IS6_EEE6secondB8ue170006Ev, symObjAddr: 0x5140, symBinAddr: 0x100009454, symSize: 0x24 }
  - { offsetInCU: 0x11694, offset: 0x11694, size: 0x8, addend: 0x0, symName: __ZNSt3__122__compressed_pair_elemINS_9allocatorINS_12basic_stringIcNS_11char_traitsIcEENS1_IcEEEEEELi1ELb1EE5__getB8ue170006Ev, symObjAddr: 0x5164, symBinAddr: 0x100009478, symSize: 0x14 }
  - { offsetInCU: 0x116B9, offset: 0x116B9, size: 0x8, addend: 0x0, symName: __ZNKSt3__16vectorINS_12basic_stringIcNS_11char_traitsIcEENS_9allocatorIcEEEENS4_IS6_EEE9__end_capB8ue170006Ev, symObjAddr: 0x5178, symBinAddr: 0x10000948C, symSize: 0x28 }
  - { offsetInCU: 0x116DE, offset: 0x116DE, size: 0x8, addend: 0x0, symName: __ZNKSt3__117__compressed_pairIPNS_12basic_stringIcNS_11char_traitsIcEENS_9allocatorIcEEEENS4_IS6_EEE5firstB8ue170006Ev, symObjAddr: 0x51A0, symBinAddr: 0x1000094B4, symSize: 0x24 }
  - { offsetInCU: 0x11703, offset: 0x11703, size: 0x8, addend: 0x0, symName: __ZNKSt3__122__compressed_pair_elemIPNS_12basic_stringIcNS_11char_traitsIcEENS_9allocatorIcEEEELi0ELb0EE5__getB8ue170006Ev, symObjAddr: 0x51C4, symBinAddr: 0x1000094D8, symSize: 0x14 }
  - { offsetInCU: 0x11728, offset: 0x11728, size: 0x8, addend: 0x0, symName: __ZNSt3__16vectorINS_12basic_stringIcNS_11char_traitsIcEENS_9allocatorIcEEEENS4_IS6_EEE9__end_capB8ue170006Ev, symObjAddr: 0x51D8, symBinAddr: 0x1000094EC, symSize: 0x28 }
  - { offsetInCU: 0x11752, offset: 0x11752, size: 0x8, addend: 0x0, symName: __ZNSt3__16vectorINS_12basic_stringIcNS_11char_traitsIcEENS_9allocatorIcEEEENS4_IS6_EEE22__construct_one_at_endB8ue170006IJS6_EEEvDpOT_, symObjAddr: 0x5200, symBinAddr: 0x100009514, symSize: 0x98 }
  - { offsetInCU: 0x1179F, offset: 0x1179F, size: 0x8, addend: 0x0, symName: __ZNSt3__16vectorINS_12basic_stringIcNS_11char_traitsIcEENS_9allocatorIcEEEENS4_IS6_EEE21__push_back_slow_pathIS6_EEvOT_, symObjAddr: 0x5298, symBinAddr: 0x1000095AC, symSize: 0xE0 }
  - { offsetInCU: 0x117FC, offset: 0x117FC, size: 0x8, addend: 0x0, symName: __ZNSt3__117__compressed_pairIPNS_12basic_stringIcNS_11char_traitsIcEENS_9allocatorIcEEEENS4_IS6_EEE5firstB8ue170006Ev, symObjAddr: 0x5378, symBinAddr: 0x10000968C, symSize: 0x24 }
  - { offsetInCU: 0x11821, offset: 0x11821, size: 0x8, addend: 0x0, symName: __ZNSt3__122__compressed_pair_elemIPNS_12basic_stringIcNS_11char_traitsIcEENS_9allocatorIcEEEELi0ELb0EE5__getB8ue170006Ev, symObjAddr: 0x539C, symBinAddr: 0x1000096B0, symSize: 0x14 }
  - { offsetInCU: 0x1185F, offset: 0x1185F, size: 0x8, addend: 0x0, symName: __ZNSt3__16vectorINS_12basic_stringIcNS_11char_traitsIcEENS_9allocatorIcEEEENS4_IS6_EEE21_ConstructTransactionC1B8ue170006ERS8_m, symObjAddr: 0x53B0, symBinAddr: 0x1000096C4, symSize: 0x3C }
  - { offsetInCU: 0x118A6, offset: 0x118A6, size: 0x8, addend: 0x0, symName: __ZNSt3__116allocator_traitsINS_9allocatorINS_12basic_stringIcNS_11char_traitsIcEENS1_IcEEEEEEE9constructB8ue170006IS6_JS6_EvEEvRS7_PT_DpOT0_, symObjAddr: 0x53EC, symBinAddr: 0x100009700, symSize: 0x34 }
  - { offsetInCU: 0x118FD, offset: 0x118FD, size: 0x8, addend: 0x0, symName: __ZNSt3__16vectorINS_12basic_stringIcNS_11char_traitsIcEENS_9allocatorIcEEEENS4_IS6_EEE21_ConstructTransactionD1B8ue170006Ev, symObjAddr: 0x5420, symBinAddr: 0x100009734, symSize: 0x2C }
  - { offsetInCU: 0x11926, offset: 0x11926, size: 0x8, addend: 0x0, symName: __ZNSt3__16vectorINS_12basic_stringIcNS_11char_traitsIcEENS_9allocatorIcEEEENS4_IS6_EEE21_ConstructTransactionC2B8ue170006ERS8_m, symObjAddr: 0x544C, symBinAddr: 0x100009760, symSize: 0x4C }
  - { offsetInCU: 0x1196D, offset: 0x1196D, size: 0x8, addend: 0x0, symName: __ZNSt3__19allocatorINS_12basic_stringIcNS_11char_traitsIcEENS0_IcEEEEE9constructB8ue170006IS5_JS5_EEEvPT_DpOT0_, symObjAddr: 0x5498, symBinAddr: 0x1000097AC, symSize: 0x30 }
  - { offsetInCU: 0x119C2, offset: 0x119C2, size: 0x8, addend: 0x0, symName: __ZNSt3__16vectorINS_12basic_stringIcNS_11char_traitsIcEENS_9allocatorIcEEEENS4_IS6_EEE21_ConstructTransactionD2B8ue170006Ev, symObjAddr: 0x54C8, symBinAddr: 0x1000097DC, symSize: 0x20 }
  - { offsetInCU: 0x119EA, offset: 0x119EA, size: 0x8, addend: 0x0, symName: __ZNKSt3__16vectorINS_12basic_stringIcNS_11char_traitsIcEENS_9allocatorIcEEEENS4_IS6_EEE11__recommendB8ue170006Em, symObjAddr: 0x54E8, symBinAddr: 0x1000097FC, symSize: 0xB4 }
  - { offsetInCU: 0x11A3E, offset: 0x11A3E, size: 0x8, addend: 0x0, symName: __ZNSt3__114__split_bufferINS_12basic_stringIcNS_11char_traitsIcEENS_9allocatorIcEEEERNS4_IS6_EEEC1EmmS8_, symObjAddr: 0x559C, symBinAddr: 0x1000098B0, symSize: 0x44 }
  - { offsetInCU: 0x11A93, offset: 0x11A93, size: 0x8, addend: 0x0, symName: __ZNSt3__114__split_bufferINS_12basic_stringIcNS_11char_traitsIcEENS_9allocatorIcEEEERNS4_IS6_EEED1Ev, symObjAddr: 0x56F0, symBinAddr: 0x100009A04, symSize: 0x2C }
  - { offsetInCU: 0x11ABD, offset: 0x11ABD, size: 0x8, addend: 0x0, symName: __ZNKSt3__16vectorINS_12basic_stringIcNS_11char_traitsIcEENS_9allocatorIcEEEENS4_IS6_EEE8max_sizeEv, symObjAddr: 0x571C, symBinAddr: 0x100009A30, symSize: 0x74 }
  - { offsetInCU: 0x11AE4, offset: 0x11AE4, size: 0x8, addend: 0x0, symName: __ZNKSt3__16vectorINS_12basic_stringIcNS_11char_traitsIcEENS_9allocatorIcEEEENS4_IS6_EEE20__throw_length_errorB8ue170006Ev, symObjAddr: 0x5790, symBinAddr: 0x100009AA4, symSize: 0x1C }
  - { offsetInCU: 0x11B13, offset: 0x11B13, size: 0x8, addend: 0x0, symName: __ZNSt3__116allocator_traitsINS_9allocatorINS_12basic_stringIcNS_11char_traitsIcEENS1_IcEEEEEEE8max_sizeB8ue170006IS7_vEEmRKS7_, symObjAddr: 0x57D8, symBinAddr: 0x100009AEC, symSize: 0x24 }
  - { offsetInCU: 0x11B41, offset: 0x11B41, size: 0x8, addend: 0x0, symName: __ZNKSt3__16vectorINS_12basic_stringIcNS_11char_traitsIcEENS_9allocatorIcEEEENS4_IS6_EEE7__allocB8ue170006Ev, symObjAddr: 0x57FC, symBinAddr: 0x100009B10, symSize: 0x28 }
  - { offsetInCU: 0x11B66, offset: 0x11B66, size: 0x8, addend: 0x0, symName: __ZNSt3__114numeric_limitsIlE3maxB8ue170006Ev, symObjAddr: 0x5824, symBinAddr: 0x100009B38, symSize: 0x14 }
  - { offsetInCU: 0x11B7A, offset: 0x11B7A, size: 0x8, addend: 0x0, symName: __ZNKSt3__19allocatorINS_12basic_stringIcNS_11char_traitsIcEENS0_IcEEEEE8max_sizeB8ue170006Ev, symObjAddr: 0x588C, symBinAddr: 0x100009BA0, symSize: 0x18 }
  - { offsetInCU: 0x11B9F, offset: 0x11B9F, size: 0x8, addend: 0x0, symName: __ZNKSt3__117__compressed_pairIPNS_12basic_stringIcNS_11char_traitsIcEENS_9allocatorIcEEEENS4_IS6_EEE6secondB8ue170006Ev, symObjAddr: 0x58A4, symBinAddr: 0x100009BB8, symSize: 0x24 }
  - { offsetInCU: 0x11BC4, offset: 0x11BC4, size: 0x8, addend: 0x0, symName: __ZNKSt3__122__compressed_pair_elemINS_9allocatorINS_12basic_stringIcNS_11char_traitsIcEENS1_IcEEEEEELi1ELb1EE5__getB8ue170006Ev, symObjAddr: 0x58C8, symBinAddr: 0x100009BDC, symSize: 0x14 }
  - { offsetInCU: 0x11BE9, offset: 0x11BE9, size: 0x8, addend: 0x0, symName: __ZNSt3__123__libcpp_numeric_limitsIlLb1EE3maxB8ue170006Ev, symObjAddr: 0x58DC, symBinAddr: 0x100009BF0, symSize: 0x8 }
  - { offsetInCU: 0x11BFD, offset: 0x11BFD, size: 0x8, addend: 0x0, symName: __ZNSt12length_errorC1B8ue170006EPKc, symObjAddr: 0x5948, symBinAddr: 0x100009C5C, symSize: 0x34 }
  - { offsetInCU: 0x11C34, offset: 0x11C34, size: 0x8, addend: 0x0, symName: __ZNSt12length_errorC2B8ue170006EPKc, symObjAddr: 0x597C, symBinAddr: 0x100009C90, symSize: 0x4C }
  - { offsetInCU: 0x11C6B, offset: 0x11C6B, size: 0x8, addend: 0x0, symName: __ZNSt3__114__split_bufferINS_12basic_stringIcNS_11char_traitsIcEENS_9allocatorIcEEEERNS4_IS6_EEEC2EmmS8_, symObjAddr: 0x59C8, symBinAddr: 0x100009CDC, symSize: 0xE0 }
  - { offsetInCU: 0x11CDE, offset: 0x11CDE, size: 0x8, addend: 0x0, symName: __ZNSt3__117__compressed_pairIPNS_12basic_stringIcNS_11char_traitsIcEENS_9allocatorIcEEEERNS4_IS6_EEEC1B8ue170006IDnS9_EEOT_OT0_, symObjAddr: 0x5AA8, symBinAddr: 0x100009DBC, symSize: 0x3C }
  - { offsetInCU: 0x11D35, offset: 0x11D35, size: 0x8, addend: 0x0, symName: __ZNSt3__114__split_bufferINS_12basic_stringIcNS_11char_traitsIcEENS_9allocatorIcEEEERNS4_IS6_EEE7__allocB8ue170006Ev, symObjAddr: 0x5B24, symBinAddr: 0x100009E38, symSize: 0x28 }
  - { offsetInCU: 0x11D5A, offset: 0x11D5A, size: 0x8, addend: 0x0, symName: __ZNSt3__114__split_bufferINS_12basic_stringIcNS_11char_traitsIcEENS_9allocatorIcEEEERNS4_IS6_EEE9__end_capB8ue170006Ev, symObjAddr: 0x5B4C, symBinAddr: 0x100009E60, symSize: 0x28 }
  - { offsetInCU: 0x11D7F, offset: 0x11D7F, size: 0x8, addend: 0x0, symName: __ZNSt3__117__compressed_pairIPNS_12basic_stringIcNS_11char_traitsIcEENS_9allocatorIcEEEERNS4_IS6_EEEC2B8ue170006IDnS9_EEOT_OT0_, symObjAddr: 0x5B74, symBinAddr: 0x100009E88, symSize: 0x48 }
  - { offsetInCU: 0x11DD6, offset: 0x11DD6, size: 0x8, addend: 0x0, symName: __ZNSt3__122__compressed_pair_elemIRNS_9allocatorINS_12basic_stringIcNS_11char_traitsIcEENS1_IcEEEEEELi1ELb0EEC2B8ue170006IS8_vEEOT_, symObjAddr: 0x5BBC, symBinAddr: 0x100009ED0, symSize: 0x20 }
  - { offsetInCU: 0x11E17, offset: 0x11E17, size: 0x8, addend: 0x0, symName: __ZNSt3__19allocatorINS_12basic_stringIcNS_11char_traitsIcEENS0_IcEEEEE8allocateB8ue170006Em, symObjAddr: 0x5BDC, symBinAddr: 0x100009EF0, symSize: 0x8C }
  - { offsetInCU: 0x11E4A, offset: 0x11E4A, size: 0x8, addend: 0x0, symName: __ZNSt3__117__compressed_pairIPNS_12basic_stringIcNS_11char_traitsIcEENS_9allocatorIcEEEERNS4_IS6_EEE6secondB8ue170006Ev, symObjAddr: 0x5C68, symBinAddr: 0x100009F7C, symSize: 0x28 }
  - { offsetInCU: 0x11E6F, offset: 0x11E6F, size: 0x8, addend: 0x0, symName: __ZNSt3__122__compressed_pair_elemIRNS_9allocatorINS_12basic_stringIcNS_11char_traitsIcEENS1_IcEEEEEELi1ELb0EE5__getB8ue170006Ev, symObjAddr: 0x5C90, symBinAddr: 0x100009FA4, symSize: 0x18 }
  - { offsetInCU: 0x11E94, offset: 0x11E94, size: 0x8, addend: 0x0, symName: __ZNSt3__117__compressed_pairIPNS_12basic_stringIcNS_11char_traitsIcEENS_9allocatorIcEEEERNS4_IS6_EEE5firstB8ue170006Ev, symObjAddr: 0x5CA8, symBinAddr: 0x100009FBC, symSize: 0x24 }
  - { offsetInCU: 0x11EB9, offset: 0x11EB9, size: 0x8, addend: 0x0, symName: __ZNSt3__116reverse_iteratorIPNS_12basic_stringIcNS_11char_traitsIcEENS_9allocatorIcEEEEEC1B8ue170006ES7_, symObjAddr: 0x5E00, symBinAddr: 0x10000A114, symSize: 0x34 }
  - { offsetInCU: 0x11EF0, offset: 0x11EF0, size: 0x8, addend: 0x0, symName: __ZNKSt3__116reverse_iteratorIPNS_12basic_stringIcNS_11char_traitsIcEENS_9allocatorIcEEEEE4baseB8ue170006Ev, symObjAddr: 0x5E34, symBinAddr: 0x10000A148, symSize: 0x18 }
  - { offsetInCU: 0x11F15, offset: 0x11F15, size: 0x8, addend: 0x0, symName: __ZNKSt3__16vectorINS_12basic_stringIcNS_11char_traitsIcEENS_9allocatorIcEEEENS4_IS6_EEE14__annotate_newB8ue170006Em, symObjAddr: 0x5E88, symBinAddr: 0x10000A19C, symSize: 0xC8 }
  - { offsetInCU: 0x11F49, offset: 0x11F49, size: 0x8, addend: 0x0, symName: __ZNSt3__129_AllocatorDestroyRangeReverseINS_9allocatorINS_12basic_stringIcNS_11char_traitsIcEENS1_IcEEEEEENS_16reverse_iteratorIPS6_EEEC1B8ue170006ERS7_RSA_SD_, symObjAddr: 0x5F9C, symBinAddr: 0x10000A2B0, symSize: 0x44 }
  - { offsetInCU: 0x11F9F, offset: 0x11F9F, size: 0x8, addend: 0x0, symName: __ZNSt3__116allocator_traitsINS_9allocatorINS_12basic_stringIcNS_11char_traitsIcEENS1_IcEEEEEEE9constructB8ue170006IS6_JRKS6_EvEEvRS7_PT_DpOT0_, symObjAddr: 0x6028, symBinAddr: 0x10000A33C, symSize: 0x34 }
  - { offsetInCU: 0x11FF6, offset: 0x11FF6, size: 0x8, addend: 0x0, symName: __ZNKSt3__116reverse_iteratorIPNS_12basic_stringIcNS_11char_traitsIcEENS_9allocatorIcEEEEEdeB8ue170006Ev, symObjAddr: 0x6080, symBinAddr: 0x10000A394, symSize: 0x28 }
  - { offsetInCU: 0x12029, offset: 0x12029, size: 0x8, addend: 0x0, symName: __ZNSt3__116reverse_iteratorIPNS_12basic_stringIcNS_11char_traitsIcEENS_9allocatorIcEEEEEppB8ue170006Ev, symObjAddr: 0x60A8, symBinAddr: 0x10000A3BC, symSize: 0x20 }
  - { offsetInCU: 0x1204E, offset: 0x1204E, size: 0x8, addend: 0x0, symName: __ZNSt3__128__exception_guard_exceptionsINS_29_AllocatorDestroyRangeReverseINS_9allocatorINS_12basic_stringIcNS_11char_traitsIcEENS2_IcEEEEEENS_16reverse_iteratorIPS7_EEEEE10__completeB8ue170006Ev, symObjAddr: 0x60C8, symBinAddr: 0x10000A3DC, symSize: 0x1C }
  - { offsetInCU: 0x12073, offset: 0x12073, size: 0x8, addend: 0x0, symName: __ZNSt3__128__exception_guard_exceptionsINS_29_AllocatorDestroyRangeReverseINS_9allocatorINS_12basic_stringIcNS_11char_traitsIcEENS2_IcEEEEEENS_16reverse_iteratorIPS7_EEEEED1B8ue170006Ev, symObjAddr: 0x60E4, symBinAddr: 0x10000A3F8, symSize: 0x2C }
  - { offsetInCU: 0x1209C, offset: 0x1209C, size: 0x8, addend: 0x0, symName: __ZNSt3__128__exception_guard_exceptionsINS_29_AllocatorDestroyRangeReverseINS_9allocatorINS_12basic_stringIcNS_11char_traitsIcEENS2_IcEEEEEENS_16reverse_iteratorIPS7_EEEEEC1B8ue170006ESC_, symObjAddr: 0x6110, symBinAddr: 0x10000A424, symSize: 0x34 }
  - { offsetInCU: 0x120D4, offset: 0x120D4, size: 0x8, addend: 0x0, symName: __ZNSt3__128__exception_guard_exceptionsINS_29_AllocatorDestroyRangeReverseINS_9allocatorINS_12basic_stringIcNS_11char_traitsIcEENS2_IcEEEEEENS_16reverse_iteratorIPS7_EEEEEC2B8ue170006ESC_, symObjAddr: 0x6144, symBinAddr: 0x10000A458, symSize: 0x30 }
  - { offsetInCU: 0x1210C, offset: 0x1210C, size: 0x8, addend: 0x0, symName: __ZNSt3__129_AllocatorDestroyRangeReverseINS_9allocatorINS_12basic_stringIcNS_11char_traitsIcEENS1_IcEEEEEENS_16reverse_iteratorIPS6_EEEC2B8ue170006ERS7_RSA_SD_, symObjAddr: 0x6174, symBinAddr: 0x10000A488, symSize: 0x38 }
  - { offsetInCU: 0x12162, offset: 0x12162, size: 0x8, addend: 0x0, symName: __ZNSt3__19allocatorINS_12basic_stringIcNS_11char_traitsIcEENS0_IcEEEEE9constructB8ue170006IS5_JRKS5_EEEvPT_DpOT0_, symObjAddr: 0x61AC, symBinAddr: 0x10000A4C0, symSize: 0x30 }
  - { offsetInCU: 0x121BC, offset: 0x121BC, size: 0x8, addend: 0x0, symName: __ZNSt3__119__to_address_helperINS_16reverse_iteratorIPNS_12basic_stringIcNS_11char_traitsIcEENS_9allocatorIcEEEEEEvE6__callB8ue170006ERKS9_, symObjAddr: 0x61DC, symBinAddr: 0x10000A4F0, symSize: 0x4C }
  - { offsetInCU: 0x121DF, offset: 0x121DF, size: 0x8, addend: 0x0, symName: __ZNKSt3__116reverse_iteratorIPNS_12basic_stringIcNS_11char_traitsIcEENS_9allocatorIcEEEEEptB8ue170006Ev, symObjAddr: 0x6228, symBinAddr: 0x10000A53C, symSize: 0x24 }
  - { offsetInCU: 0x12204, offset: 0x12204, size: 0x8, addend: 0x0, symName: __ZNSt3__128__exception_guard_exceptionsINS_29_AllocatorDestroyRangeReverseINS_9allocatorINS_12basic_stringIcNS_11char_traitsIcEENS2_IcEEEEEENS_16reverse_iteratorIPS7_EEEEED2B8ue170006Ev, symObjAddr: 0x624C, symBinAddr: 0x10000A560, symSize: 0x48 }
  - { offsetInCU: 0x1222D, offset: 0x1222D, size: 0x8, addend: 0x0, symName: __ZNKSt3__129_AllocatorDestroyRangeReverseINS_9allocatorINS_12basic_stringIcNS_11char_traitsIcEENS1_IcEEEEEENS_16reverse_iteratorIPS6_EEEclB8ue170006Ev, symObjAddr: 0x6294, symBinAddr: 0x10000A5A8, symSize: 0xB4 }
  - { offsetInCU: 0x12253, offset: 0x12253, size: 0x8, addend: 0x0, symName: __ZNSt3__116reverse_iteratorINS0_IPNS_12basic_stringIcNS_11char_traitsIcEENS_9allocatorIcEEEEEEEC1B8ue170006ES8_, symObjAddr: 0x63B8, symBinAddr: 0x10000A6CC, symSize: 0x3C }
  - { offsetInCU: 0x1228A, offset: 0x1228A, size: 0x8, addend: 0x0, symName: __ZNSt3__116reverse_iteratorINS0_IPNS_12basic_stringIcNS_11char_traitsIcEENS_9allocatorIcEEEEEEEppB8ue170006Ev, symObjAddr: 0x6478, symBinAddr: 0x10000A78C, symSize: 0x30 }
  - { offsetInCU: 0x122AF, offset: 0x122AF, size: 0x8, addend: 0x0, symName: __ZNKSt3__116reverse_iteratorINS0_IPNS_12basic_stringIcNS_11char_traitsIcEENS_9allocatorIcEEEEEEE4baseB8ue170006Ev, symObjAddr: 0x64A8, symBinAddr: 0x10000A7BC, symSize: 0x24 }
  - { offsetInCU: 0x122D9, offset: 0x122D9, size: 0x8, addend: 0x0, symName: __ZNSt3__119__to_address_helperINS_16reverse_iteratorINS1_IPNS_12basic_stringIcNS_11char_traitsIcEENS_9allocatorIcEEEEEEEEvE6__callB8ue170006ERKSA_, symObjAddr: 0x64CC, symBinAddr: 0x10000A7E0, symSize: 0x4C }
  - { offsetInCU: 0x122FC, offset: 0x122FC, size: 0x8, addend: 0x0, symName: __ZNKSt3__116reverse_iteratorINS0_IPNS_12basic_stringIcNS_11char_traitsIcEENS_9allocatorIcEEEEEEEptB8ue170006Ev, symObjAddr: 0x6518, symBinAddr: 0x10000A82C, symSize: 0x24 }
  - { offsetInCU: 0x12321, offset: 0x12321, size: 0x8, addend: 0x0, symName: __ZNKSt3__116reverse_iteratorINS0_IPNS_12basic_stringIcNS_11char_traitsIcEENS_9allocatorIcEEEEEEEdeB8ue170006Ev, symObjAddr: 0x653C, symBinAddr: 0x10000A850, symSize: 0x34 }
  - { offsetInCU: 0x12354, offset: 0x12354, size: 0x8, addend: 0x0, symName: __ZNSt3__116reverse_iteratorIPNS_12basic_stringIcNS_11char_traitsIcEENS_9allocatorIcEEEEEmmB8ue170006Ev, symObjAddr: 0x6570, symBinAddr: 0x10000A884, symSize: 0x20 }
  - { offsetInCU: 0x12379, offset: 0x12379, size: 0x8, addend: 0x0, symName: __ZNSt3__116reverse_iteratorINS0_IPNS_12basic_stringIcNS_11char_traitsIcEENS_9allocatorIcEEEEEEEC2B8ue170006ES8_, symObjAddr: 0x6590, symBinAddr: 0x10000A8A4, symSize: 0x2C }
  - { offsetInCU: 0x123B0, offset: 0x123B0, size: 0x8, addend: 0x0, symName: __ZNSt3__116reverse_iteratorIPNS_12basic_stringIcNS_11char_traitsIcEENS_9allocatorIcEEEEEC2B8ue170006ES7_, symObjAddr: 0x65BC, symBinAddr: 0x10000A8D0, symSize: 0x28 }
  - { offsetInCU: 0x123E7, offset: 0x123E7, size: 0x8, addend: 0x0, symName: __ZNSt3__114__split_bufferINS_12basic_stringIcNS_11char_traitsIcEENS_9allocatorIcEEEERNS4_IS6_EEED2Ev, symObjAddr: 0x65E4, symBinAddr: 0x10000A8F8, symSize: 0x80 }
  - { offsetInCU: 0x12412, offset: 0x12412, size: 0x8, addend: 0x0, symName: __ZNSt3__114__split_bufferINS_12basic_stringIcNS_11char_traitsIcEENS_9allocatorIcEEEERNS4_IS6_EEE5clearB8ue170006Ev, symObjAddr: 0x6664, symBinAddr: 0x10000A978, symSize: 0x28 }
  - { offsetInCU: 0x12437, offset: 0x12437, size: 0x8, addend: 0x0, symName: __ZNKSt3__114__split_bufferINS_12basic_stringIcNS_11char_traitsIcEENS_9allocatorIcEEEERNS4_IS6_EEE8capacityB8ue170006Ev, symObjAddr: 0x668C, symBinAddr: 0x10000A9A0, symSize: 0x40 }
  - { offsetInCU: 0x1245C, offset: 0x1245C, size: 0x8, addend: 0x0, symName: __ZNSt3__114__split_bufferINS_12basic_stringIcNS_11char_traitsIcEENS_9allocatorIcEEEERNS4_IS6_EEE17__destruct_at_endB8ue170006EPS6_, symObjAddr: 0x66CC, symBinAddr: 0x10000A9E0, symSize: 0x2C }
  - { offsetInCU: 0x1248E, offset: 0x1248E, size: 0x8, addend: 0x0, symName: __ZNSt3__114__split_bufferINS_12basic_stringIcNS_11char_traitsIcEENS_9allocatorIcEEEERNS4_IS6_EEE17__destruct_at_endB8ue170006EPS6_NS_17integral_constantIbLb0EEE, symObjAddr: 0x66F8, symBinAddr: 0x10000AA0C, symSize: 0x94 }
  - { offsetInCU: 0x124CE, offset: 0x124CE, size: 0x8, addend: 0x0, symName: __ZNKSt3__114__split_bufferINS_12basic_stringIcNS_11char_traitsIcEENS_9allocatorIcEEEERNS4_IS6_EEE9__end_capB8ue170006Ev, symObjAddr: 0x678C, symBinAddr: 0x10000AAA0, symSize: 0x28 }
  - { offsetInCU: 0x124F3, offset: 0x124F3, size: 0x8, addend: 0x0, symName: __ZNKSt3__117__compressed_pairIPNS_12basic_stringIcNS_11char_traitsIcEENS_9allocatorIcEEEERNS4_IS6_EEE5firstB8ue170006Ev, symObjAddr: 0x67B4, symBinAddr: 0x10000AAC8, symSize: 0x24 }
  - { offsetInCU: 0x12518, offset: 0x12518, size: 0x8, addend: 0x0, symName: __ZNKSt3__112basic_stringIcNS_11char_traitsIcEENS_9allocatorIcEEE4dataB8ue170006Ev, symObjAddr: 0x69CC, symBinAddr: 0x10000ACE0, symSize: 0x28 }
  - { offsetInCU: 0x1255B, offset: 0x1255B, size: 0x8, addend: 0x0, symName: __ZNKSt3__113basic_ostreamIcNS_11char_traitsIcEEE6sentrycvbB8ue170006Ev, symObjAddr: 0x69F4, symBinAddr: 0x10000AD08, symSize: 0x1C }
  - { offsetInCU: 0x12580, offset: 0x12580, size: 0x8, addend: 0x0, symName: __ZNSt3__119ostreambuf_iteratorIcNS_11char_traitsIcEEEC1B8ue170006ERNS_13basic_ostreamIcS2_EE, symObjAddr: 0x6C58, symBinAddr: 0x10000AF6C, symSize: 0x34 }
  - { offsetInCU: 0x125B7, offset: 0x125B7, size: 0x8, addend: 0x0, symName: __ZNKSt3__18ios_base5flagsB8ue170006Ev, symObjAddr: 0x6C8C, symBinAddr: 0x10000AFA0, symSize: 0x18 }
  - { offsetInCU: 0x125DD, offset: 0x125DD, size: 0x8, addend: 0x0, symName: __ZNKSt3__19basic_iosIcNS_11char_traitsIcEEE4fillB8ue170006Ev, symObjAddr: 0x6CA4, symBinAddr: 0x10000AFB8, symSize: 0x64 }
  - { offsetInCU: 0x12604, offset: 0x12604, size: 0x8, addend: 0x0, symName: __ZNKSt3__119ostreambuf_iteratorIcNS_11char_traitsIcEEE6failedB8ue170006Ev, symObjAddr: 0x6D08, symBinAddr: 0x10000B01C, symSize: 0x24 }
  - { offsetInCU: 0x12629, offset: 0x12629, size: 0x8, addend: 0x0, symName: __ZNSt3__19basic_iosIcNS_11char_traitsIcEEE8setstateB8ue170006Ej, symObjAddr: 0x6D2C, symBinAddr: 0x10000B040, symSize: 0x2C }
  - { offsetInCU: 0x1265D, offset: 0x1265D, size: 0x8, addend: 0x0, symName: __ZNKSt3__18ios_base5widthB8ue170006Ev, symObjAddr: 0x6D58, symBinAddr: 0x10000B06C, symSize: 0x18 }
  - { offsetInCU: 0x12684, offset: 0x12684, size: 0x8, addend: 0x0, symName: __ZNSt3__115basic_streambufIcNS_11char_traitsIcEEE5sputnB8ue170006EPKcl, symObjAddr: 0x6D70, symBinAddr: 0x10000B084, symSize: 0x3C }
  - { offsetInCU: 0x126C5, offset: 0x126C5, size: 0x8, addend: 0x0, symName: __ZNSt3__112basic_stringIcNS_11char_traitsIcEENS_9allocatorIcEEEC1B8ue170006Emc, symObjAddr: 0x6DAC, symBinAddr: 0x10000B0C0, symSize: 0x3C }
  - { offsetInCU: 0x1270C, offset: 0x1270C, size: 0x8, addend: 0x0, symName: __ZNSt3__18ios_base5widthB8ue170006El, symObjAddr: 0x6DE8, symBinAddr: 0x10000B0FC, symSize: 0x2C }
  - { offsetInCU: 0x12751, offset: 0x12751, size: 0x8, addend: 0x0, symName: __ZNSt3__112basic_stringIcNS_11char_traitsIcEENS_9allocatorIcEEEC2B8ue170006Emc, symObjAddr: 0x6E14, symBinAddr: 0x10000B128, symSize: 0x4C }
  - { offsetInCU: 0x12798, offset: 0x12798, size: 0x8, addend: 0x0, symName: __ZNSt3__119ostreambuf_iteratorIcNS_11char_traitsIcEEEC2B8ue170006ERNS_13basic_ostreamIcS2_EE, symObjAddr: 0x6E60, symBinAddr: 0x10000B174, symSize: 0x68 }
  - { offsetInCU: 0x127CE, offset: 0x127CE, size: 0x8, addend: 0x0, symName: __ZNKSt3__19basic_iosIcNS_11char_traitsIcEEE5rdbufB8ue170006Ev, symObjAddr: 0x6EC8, symBinAddr: 0x10000B1DC, symSize: 0x24 }
  - { offsetInCU: 0x127F5, offset: 0x127F5, size: 0x8, addend: 0x0, symName: __ZNKSt3__18ios_base5rdbufB8ue170006Ev, symObjAddr: 0x6EEC, symBinAddr: 0x10000B200, symSize: 0x18 }
  - { offsetInCU: 0x1281A, offset: 0x1281A, size: 0x8, addend: 0x0, symName: __ZNSt3__111char_traitsIcE11eq_int_typeB8ue170006Eii, symObjAddr: 0x6F04, symBinAddr: 0x10000B218, symSize: 0x28 }
  - { offsetInCU: 0x1284D, offset: 0x1284D, size: 0x8, addend: 0x0, symName: __ZNSt3__111char_traitsIcE3eofB8ue170006Ev, symObjAddr: 0x6F2C, symBinAddr: 0x10000B240, symSize: 0x8 }
  - { offsetInCU: 0x12860, offset: 0x12860, size: 0x8, addend: 0x0, symName: __ZNKSt3__19basic_iosIcNS_11char_traitsIcEEE5widenB8ue170006Ec, symObjAddr: 0x6F34, symBinAddr: 0x10000B248, symSize: 0x8C }
  - { offsetInCU: 0x128CD, offset: 0x128CD, size: 0x8, addend: 0x0, symName: __ZNKSt3__15ctypeIcE5widenB8ue170006Ec, symObjAddr: 0x6FEC, symBinAddr: 0x10000B300, symSize: 0x38 }
  - { offsetInCU: 0x12900, offset: 0x12900, size: 0x8, addend: 0x0, symName: __ZNSt3__18ios_base8setstateB8ue170006Ej, symObjAddr: 0x7024, symBinAddr: 0x10000B338, symSize: 0x34 }
  - { offsetInCU: 0x12936, offset: 0x12936, size: 0x8, addend: 0x0, symName: __ZNKSt3__112basic_stringIcNS_11char_traitsIcEENS_9allocatorIcEEE13__get_pointerB8ue170006Ev, symObjAddr: 0x706C, symBinAddr: 0x10000B380, symSize: 0x54 }
  - { offsetInCU: 0x1295B, offset: 0x1295B, size: 0x8, addend: 0x0, symName: __ZNKSt3__112basic_stringIcNS_11char_traitsIcEENS_9allocatorIcEEE18__get_long_pointerB8ue170006Ev, symObjAddr: 0x70C0, symBinAddr: 0x10000B3D4, symSize: 0x28 }
  - { offsetInCU: 0x12980, offset: 0x12980, size: 0x8, addend: 0x0, symName: __ZNKSt3__112basic_stringIcNS_11char_traitsIcEENS_9allocatorIcEEE19__get_short_pointerB8ue170006Ev, symObjAddr: 0x70E8, symBinAddr: 0x10000B3FC, symSize: 0x28 }
  - { offsetInCU: 0x129A5, offset: 0x129A5, size: 0x8, addend: 0x0, symName: __ZNSt3__114pointer_traitsIPKcE10pointer_toB8ue170006ERS1_, symObjAddr: 0x7110, symBinAddr: 0x10000B424, symSize: 0x14 }
...
